Component: ARM Compiler 5.06 update 6 (build 750) Tool: armlink [4d35ed]

==============================================================================

Section Cross References

    gd32f4xx_it.o(i.DMA1_Channel2_IRQHandler) refers to gd32f4xx_dma.o(i.dma_interrupt_flag_clear) for dma_interrupt_flag_clear
    gd32f4xx_it.o(i.DMA1_Channel2_IRQHandler) refers to gd32f4xx_dma.o(i.dma_interrupt_flag_get) for dma_interrupt_flag_get
    gd32f4xx_it.o(i.DMA1_Channel7_IRQHandler) refers to gd32f4xx_dma.o(i.dma_interrupt_flag_get) for dma_interrupt_flag_get
    gd32f4xx_it.o(i.DMA1_Channel7_IRQHandler) refers to gd32f4xx_dma.o(i.dma_interrupt_flag_clear) for dma_interrupt_flag_clear
    gd32f4xx_it.o(i.EXTI10_15_IRQHandler) refers to gd32f4xx_exti.o(i.exti_interrupt_flag_get) for exti_interrupt_flag_get
    gd32f4xx_it.o(i.EXTI10_15_IRQHandler) refers to gd32f4xx_exti.o(i.exti_interrupt_flag_clear) for exti_interrupt_flag_clear
    gd32f4xx_it.o(i.EXTI10_15_IRQHandler) refers to app_lcd.o(i.getuiCallback) for getuiCallback
    gd32f4xx_it.o(i.SysTick_Handler) refers to sys.o(i.TickPro) for TickPro
    gd32f4xx_it.o(i.SysTick_Handler) refers to gd32f4xx_it.o(.data) for sys_tick
    gd32f4xx_it.o(i.TIMER2_IRQHandler) refers to timer.o(i.HAL_TIM_IC_CaptureCallback) for HAL_TIM_IC_CaptureCallback
    gd32f4xx_it.o(i.TIMER2_IRQHandler) refers to gd32f4xx_it.o(.data) for count
    gd32f4xx_it.o(i.USART5_IRQHandler) refers to gd32f4xx_usart.o(i.usart_interrupt_flag_get) for usart_interrupt_flag_get
    gd32f4xx_it.o(i.USART5_IRQHandler) refers to gd32f4xx_usart.o(i.usart_interrupt_flag_clear) for usart_interrupt_flag_clear
    gd32f4xx_it.o(i.USART5_IRQHandler) refers to gd32f4xx_usart.o(i.usart_data_receive) for usart_data_receive
    gd32f4xx_it.o(i.USART5_IRQHandler) refers to modbus.o(i.RS485_RxCpltCallback) for RS485_RxCpltCallback
    main.o(i.MX_GPIO_Init) refers to gd32f4xx_rcu.o(i.rcu_periph_clock_enable) for rcu_periph_clock_enable
    main.o(i.MX_GPIO_Init) refers to gd32f4xx_gpio.o(i.gpio_bit_reset) for gpio_bit_reset
    main.o(i.MX_GPIO_Init) refers to gd32f4xx_gpio.o(i.gpio_bit_write) for gpio_bit_write
    main.o(i.MX_GPIO_Init) refers to gd32f4xx_gpio.o(i.gpio_mode_set) for gpio_mode_set
    main.o(i.MX_GPIO_Init) refers to gd32f4xx_gpio.o(i.gpio_output_options_set) for gpio_output_options_set
    main.o(i.MX_GPIO_Init) refers to gd32f4xx_misc.o(i.nvic_irq_enable) for nvic_irq_enable
    main.o(i.MX_GPIO_Init) refers to gd32f4xx_syscfg.o(i.syscfg_exti_line_config) for syscfg_exti_line_config
    main.o(i.MX_GPIO_Init) refers to gd32f4xx_exti.o(i.exti_init) for exti_init
    main.o(i.MX_GPIO_Init) refers to gd32f4xx_exti.o(i.exti_interrupt_flag_clear) for exti_interrupt_flag_clear
    main.o(i.MX_TIM1_Init) refers to gd32f4xx_rcu.o(i.rcu_periph_clock_enable) for rcu_periph_clock_enable
    main.o(i.MX_TIM1_Init) refers to gd32f4xx_rcu.o(i.rcu_timer_clock_prescaler_config) for rcu_timer_clock_prescaler_config
    main.o(i.MX_TIM1_Init) refers to gd32f4xx_timer.o(i.timer_deinit) for timer_deinit
    main.o(i.MX_TIM1_Init) refers to gd32f4xx_timer.o(i.timer_init) for timer_init
    main.o(i.MX_TIM1_Init) refers to gd32f4xx_timer.o(i.timer_channel_output_config) for timer_channel_output_config
    main.o(i.MX_TIM1_Init) refers to gd32f4xx_timer.o(i.timer_channel_output_pulse_value_config) for timer_channel_output_pulse_value_config
    main.o(i.MX_TIM1_Init) refers to gd32f4xx_timer.o(i.timer_channel_output_mode_config) for timer_channel_output_mode_config
    main.o(i.MX_TIM1_Init) refers to gd32f4xx_timer.o(i.timer_channel_output_shadow_config) for timer_channel_output_shadow_config
    main.o(i.MX_TIM1_Init) refers to gd32f4xx_timer.o(i.timer_primary_output_config) for timer_primary_output_config
    main.o(i.MX_TIM1_Init) refers to gd32f4xx_timer.o(i.timer_auto_reload_shadow_enable) for timer_auto_reload_shadow_enable
    main.o(i.MX_TIM1_Init) refers to gd32f4xx_timer.o(i.timer_enable) for timer_enable
    main.o(i.MX_TIM3_Init) refers to gd32f4xx_rcu.o(i.rcu_periph_clock_enable) for rcu_periph_clock_enable
    main.o(i.MX_TIM3_Init) refers to gd32f4xx_rcu.o(i.rcu_timer_clock_prescaler_config) for rcu_timer_clock_prescaler_config
    main.o(i.MX_TIM3_Init) refers to gd32f4xx_timer.o(i.timer_deinit) for timer_deinit
    main.o(i.MX_TIM3_Init) refers to gd32f4xx_timer.o(i.timer_init) for timer_init
    main.o(i.MX_TIM3_Init) refers to gd32f4xx_timer.o(i.timer_input_capture_config) for timer_input_capture_config
    main.o(i.MX_TIM3_Init) refers to gd32f4xx_timer.o(i.timer_auto_reload_shadow_enable) for timer_auto_reload_shadow_enable
    main.o(i.MX_TIM3_Init) refers to gd32f4xx_timer.o(i.timer_interrupt_flag_clear) for timer_interrupt_flag_clear
    main.o(i.MX_TIM3_Init) refers to gd32f4xx_timer.o(i.timer_interrupt_enable) for timer_interrupt_enable
    main.o(i.MX_TIM3_Init) refers to gd32f4xx_timer.o(i.timer_enable) for timer_enable
    main.o(i.MX_TIM4_Init) refers to gd32f4xx_rcu.o(i.rcu_periph_clock_enable) for rcu_periph_clock_enable
    main.o(i.MX_TIM4_Init) refers to gd32f4xx_gpio.o(i.gpio_mode_set) for gpio_mode_set
    main.o(i.MX_TIM4_Init) refers to gd32f4xx_gpio.o(i.gpio_output_options_set) for gpio_output_options_set
    main.o(i.MX_TIM4_Init) refers to gd32f4xx_gpio.o(i.gpio_af_set) for gpio_af_set
    main.o(i.MX_TIM4_Init) refers to gd32f4xx_rcu.o(i.rcu_timer_clock_prescaler_config) for rcu_timer_clock_prescaler_config
    main.o(i.MX_TIM4_Init) refers to gd32f4xx_timer.o(i.timer_deinit) for timer_deinit
    main.o(i.MX_TIM4_Init) refers to gd32f4xx_timer.o(i.timer_init) for timer_init
    main.o(i.MX_TIM4_Init) refers to gd32f4xx_timer.o(i.timer_channel_output_config) for timer_channel_output_config
    main.o(i.MX_TIM4_Init) refers to gd32f4xx_timer.o(i.timer_channel_output_pulse_value_config) for timer_channel_output_pulse_value_config
    main.o(i.MX_TIM4_Init) refers to gd32f4xx_timer.o(i.timer_channel_output_mode_config) for timer_channel_output_mode_config
    main.o(i.MX_TIM4_Init) refers to gd32f4xx_timer.o(i.timer_channel_output_shadow_config) for timer_channel_output_shadow_config
    main.o(i.MX_TIM4_Init) refers to gd32f4xx_timer.o(i.timer_auto_reload_shadow_enable) for timer_auto_reload_shadow_enable
    main.o(i.MX_TIM4_Init) refers to gd32f4xx_timer.o(i.timer_enable) for timer_enable
    main.o(i.MX_UART4_Init) refers to gd32f4xx_rcu.o(i.rcu_periph_clock_enable) for rcu_periph_clock_enable
    main.o(i.MX_UART4_Init) refers to gd32f4xx_gpio.o(i.gpio_af_set) for gpio_af_set
    main.o(i.MX_UART4_Init) refers to gd32f4xx_gpio.o(i.gpio_mode_set) for gpio_mode_set
    main.o(i.MX_UART4_Init) refers to gd32f4xx_gpio.o(i.gpio_output_options_set) for gpio_output_options_set
    main.o(i.MX_UART4_Init) refers to gd32f4xx_usart.o(i.usart_deinit) for usart_deinit
    main.o(i.MX_UART4_Init) refers to gd32f4xx_usart.o(i.usart_baudrate_set) for usart_baudrate_set
    main.o(i.MX_UART4_Init) refers to gd32f4xx_usart.o(i.usart_receive_config) for usart_receive_config
    main.o(i.MX_UART4_Init) refers to gd32f4xx_usart.o(i.usart_transmit_config) for usart_transmit_config
    main.o(i.MX_UART4_Init) refers to gd32f4xx_usart.o(i.usart_enable) for usart_enable
    main.o(i.MX_USART1_UART_Init) refers to gd32f4xx_rcu.o(i.rcu_periph_clock_enable) for rcu_periph_clock_enable
    main.o(i.MX_USART1_UART_Init) refers to gd32f4xx_gpio.o(i.gpio_af_set) for gpio_af_set
    main.o(i.MX_USART1_UART_Init) refers to gd32f4xx_gpio.o(i.gpio_mode_set) for gpio_mode_set
    main.o(i.MX_USART1_UART_Init) refers to gd32f4xx_gpio.o(i.gpio_output_options_set) for gpio_output_options_set
    main.o(i.MX_USART1_UART_Init) refers to gd32f4xx_usart.o(i.usart_deinit) for usart_deinit
    main.o(i.MX_USART1_UART_Init) refers to gd32f4xx_usart.o(i.usart_baudrate_set) for usart_baudrate_set
    main.o(i.MX_USART1_UART_Init) refers to gd32f4xx_usart.o(i.usart_receive_config) for usart_receive_config
    main.o(i.MX_USART1_UART_Init) refers to gd32f4xx_usart.o(i.usart_transmit_config) for usart_transmit_config
    main.o(i.MX_USART1_UART_Init) refers to gd32f4xx_usart.o(i.usart_enable) for usart_enable
    main.o(i.MX_USART2_UART_Init) refers to gd32f4xx_rcu.o(i.rcu_periph_clock_enable) for rcu_periph_clock_enable
    main.o(i.MX_USART2_UART_Init) refers to gd32f4xx_gpio.o(i.gpio_af_set) for gpio_af_set
    main.o(i.MX_USART2_UART_Init) refers to gd32f4xx_gpio.o(i.gpio_mode_set) for gpio_mode_set
    main.o(i.MX_USART2_UART_Init) refers to gd32f4xx_gpio.o(i.gpio_output_options_set) for gpio_output_options_set
    main.o(i.MX_USART2_UART_Init) refers to gd32f4xx_usart.o(i.usart_deinit) for usart_deinit
    main.o(i.MX_USART2_UART_Init) refers to gd32f4xx_usart.o(i.usart_baudrate_set) for usart_baudrate_set
    main.o(i.MX_USART2_UART_Init) refers to gd32f4xx_usart.o(i.usart_receive_config) for usart_receive_config
    main.o(i.MX_USART2_UART_Init) refers to gd32f4xx_usart.o(i.usart_transmit_config) for usart_transmit_config
    main.o(i.MX_USART2_UART_Init) refers to gd32f4xx_usart.o(i.usart_enable) for usart_enable
    main.o(i.MX_USART2_UART_Init) refers to gd32f4xx_usart.o(i.usart_interrupt_enable) for usart_interrupt_enable
    main.o(i.MX_USART3_UART_Init) refers to gd32f4xx_rcu.o(i.rcu_periph_clock_enable) for rcu_periph_clock_enable
    main.o(i.MX_USART3_UART_Init) refers to gd32f4xx_gpio.o(i.gpio_af_set) for gpio_af_set
    main.o(i.MX_USART3_UART_Init) refers to gd32f4xx_gpio.o(i.gpio_mode_set) for gpio_mode_set
    main.o(i.MX_USART3_UART_Init) refers to gd32f4xx_gpio.o(i.gpio_output_options_set) for gpio_output_options_set
    main.o(i.MX_USART3_UART_Init) refers to gd32f4xx_usart.o(i.usart_deinit) for usart_deinit
    main.o(i.MX_USART3_UART_Init) refers to gd32f4xx_usart.o(i.usart_baudrate_set) for usart_baudrate_set
    main.o(i.MX_USART3_UART_Init) refers to gd32f4xx_usart.o(i.usart_receive_config) for usart_receive_config
    main.o(i.MX_USART3_UART_Init) refers to gd32f4xx_usart.o(i.usart_transmit_config) for usart_transmit_config
    main.o(i.MX_USART3_UART_Init) refers to gd32f4xx_usart.o(i.usart_enable) for usart_enable
    main.o(i.MX_USART6_UART_Init) refers to gd32f4xx_rcu.o(i.rcu_periph_clock_enable) for rcu_periph_clock_enable
    main.o(i.MX_USART6_UART_Init) refers to gd32f4xx_gpio.o(i.gpio_af_set) for gpio_af_set
    main.o(i.MX_USART6_UART_Init) refers to gd32f4xx_gpio.o(i.gpio_mode_set) for gpio_mode_set
    main.o(i.MX_USART6_UART_Init) refers to gd32f4xx_gpio.o(i.gpio_output_options_set) for gpio_output_options_set
    main.o(i.MX_USART6_UART_Init) refers to gd32f4xx_usart.o(i.usart_deinit) for usart_deinit
    main.o(i.MX_USART6_UART_Init) refers to gd32f4xx_usart.o(i.usart_baudrate_set) for usart_baudrate_set
    main.o(i.MX_USART6_UART_Init) refers to gd32f4xx_usart.o(i.usart_receive_config) for usart_receive_config
    main.o(i.MX_USART6_UART_Init) refers to gd32f4xx_usart.o(i.usart_transmit_config) for usart_transmit_config
    main.o(i.MX_USART6_UART_Init) refers to gd32f4xx_usart.o(i.usart_enable) for usart_enable
    main.o(i.MX_USART6_UART_Init) refers to gd32f4xx_misc.o(i.nvic_irq_enable) for nvic_irq_enable
    main.o(i.MX_USART6_UART_Init) refers to gd32f4xx_usart.o(i.usart_interrupt_enable) for usart_interrupt_enable
    main.o(i.MX_USART6_UART_Init) refers to gd32f4xx_usart.o(i.usart_dma_receive_config) for usart_dma_receive_config
    main.o(i.MX_USART6_UART_Init) refers to gd32f4xx_usart.o(i.usart_dma_transmit_config) for usart_dma_transmit_config
    main.o(i.adc_config) refers to gd32f4xx_adc.o(i.adc_deinit) for adc_deinit
    main.o(i.adc_config) refers to gd32f4xx_adc.o(i.adc_sync_mode_config) for adc_sync_mode_config
    main.o(i.adc_config) refers to gd32f4xx_adc.o(i.adc_channel_length_config) for adc_channel_length_config
    main.o(i.adc_config) refers to gd32f4xx_adc.o(i.adc_inserted_channel_config) for adc_inserted_channel_config
    main.o(i.adc_config) refers to gd32f4xx_adc.o(i.adc_external_trigger_config) for adc_external_trigger_config
    main.o(i.adc_config) refers to gd32f4xx_adc.o(i.adc_data_alignment_config) for adc_data_alignment_config
    main.o(i.adc_config) refers to gd32f4xx_adc.o(i.adc_special_function_config) for adc_special_function_config
    main.o(i.adc_config) refers to gd32f4xx_adc.o(i.adc_channel_16_to_18) for adc_channel_16_to_18
    main.o(i.adc_config) refers to gd32f4xx_adc.o(i.adc_external_trigger_source_config) for adc_external_trigger_source_config
    main.o(i.adc_config) refers to gd32f4xx_adc.o(i.adc_enable) for adc_enable
    main.o(i.adc_config) refers to sys.o(i.delay_ms) for delay_ms
    main.o(i.adc_config) refers to gd32f4xx_adc.o(i.adc_calibration_enable) for adc_calibration_enable
    main.o(i.adc_config) refers to gd32f4xx_adc.o(i.adc_software_trigger_enable) for adc_software_trigger_enable
    main.o(i.dma_config) refers to gd32f4xx_rcu.o(i.rcu_periph_clock_enable) for rcu_periph_clock_enable
    main.o(i.dma_config) refers to gd32f4xx_dma.o(i.dma_deinit) for dma_deinit
    main.o(i.dma_config) refers to gd32f4xx_misc.o(i.nvic_irq_enable) for nvic_irq_enable
    main.o(i.dma_config) refers to gd32f4xx_dma.o(i.dma_single_data_mode_init) for dma_single_data_mode_init
    main.o(i.dma_config) refers to gd32f4xx_dma.o(i.dma_circulation_disable) for dma_circulation_disable
    main.o(i.dma_config) refers to gd32f4xx_dma.o(i.dma_channel_subperipheral_select) for dma_channel_subperipheral_select
    main.o(i.dma_config) refers to gd32f4xx_dma.o(i.dma_interrupt_enable) for dma_interrupt_enable
    main.o(i.dma_config) refers to gd32f4xx_dma.o(i.dma_channel_enable) for dma_channel_enable
    main.o(i.dma_config) refers to modbus.o(.bss) for modbus_usr
    main.o(i.gpio_config) refers to gd32f4xx_gpio.o(i.gpio_mode_set) for gpio_mode_set
    main.o(i.gpio_config) refers to gd32f4xx_gpio.o(i.gpio_output_options_set) for gpio_output_options_set
    main.o(i.gpio_config) refers to gd32f4xx_gpio.o(i.gpio_af_set) for gpio_af_set
    main.o(i.main) refers to main.o(i.rcu_config) for rcu_config
    main.o(i.main) refers to main.o(i.gpio_config) for gpio_config
    main.o(i.main) refers to sys.o(i.systick_config) for systick_config
    main.o(i.main) refers to main.o(i.MX_USART6_UART_Init) for MX_USART6_UART_Init
    main.o(i.main) refers to main.o(i.MX_GPIO_Init) for MX_GPIO_Init
    main.o(i.main) refers to main.o(i.adc_config) for adc_config
    main.o(i.main) refers to main.o(i.nvic_config) for nvic_config
    main.o(i.main) refers to main.o(i.dma_config) for dma_config
    main.o(i.main) refers to gd32f4xx_gpio.o(i.gpio_bit_reset) for gpio_bit_reset
    main.o(i.main) refers to main.o(i.MX_TIM3_Init) for MX_TIM3_Init
    main.o(i.main) refers to main.o(i.MX_UART4_Init) for MX_UART4_Init
    main.o(i.main) refers to main.o(i.MX_USART1_UART_Init) for MX_USART1_UART_Init
    main.o(i.main) refers to main.o(i.MX_USART2_UART_Init) for MX_USART2_UART_Init
    main.o(i.main) refers to main.o(i.MX_USART3_UART_Init) for MX_USART3_UART_Init
    main.o(i.main) refers to main.o(i.MX_TIM4_Init) for MX_TIM4_Init
    main.o(i.main) refers to main.o(i.MX_TIM1_Init) for MX_TIM1_Init
    main.o(i.main) refers to app_lcd.o(i.lcd_init) for lcd_init
    main.o(i.main) refers to app.o(i.Flow_Init) for Flow_Init
    main.o(i.main) refers to bsp_beep.o(i.BEEP_Start) for BEEP_Start
    main.o(i.main) refers to app.o(i.app) for app
    main.o(i.nvic_config) refers to gd32f4xx_misc.o(i.nvic_priority_group_set) for nvic_priority_group_set
    main.o(i.nvic_config) refers to gd32f4xx_misc.o(i.nvic_irq_enable) for nvic_irq_enable
    main.o(i.rcu_config) refers to gd32f4xx_rcu.o(i.rcu_periph_clock_enable) for rcu_periph_clock_enable
    main.o(i.rcu_config) refers to gd32f4xx_adc.o(i.adc_clock_config) for adc_clock_config
    system_gd32f4xx.o(i.SystemCoreClockUpdate) refers to system_gd32f4xx.o(.data) for SystemCoreClock
    system_gd32f4xx.o(i.SystemInit) refers to system_gd32f4xx.o(i.system_clock_config) for system_clock_config
    system_gd32f4xx.o(i.system_clock_config) refers to system_gd32f4xx.o(i.system_clock_120m_irc16m) for system_clock_120m_irc16m
    gd32f4xx_rtc.o(i.rtc_coarse_calibration_config) refers to gd32f4xx_rtc.o(i.rtc_init_mode_enter) for rtc_init_mode_enter
    gd32f4xx_rtc.o(i.rtc_coarse_calibration_config) refers to gd32f4xx_rtc.o(i.rtc_init_mode_exit) for rtc_init_mode_exit
    gd32f4xx_rtc.o(i.rtc_coarse_calibration_disable) refers to gd32f4xx_rtc.o(i.rtc_init_mode_enter) for rtc_init_mode_enter
    gd32f4xx_rtc.o(i.rtc_coarse_calibration_disable) refers to gd32f4xx_rtc.o(i.rtc_init_mode_exit) for rtc_init_mode_exit
    gd32f4xx_rtc.o(i.rtc_coarse_calibration_enable) refers to gd32f4xx_rtc.o(i.rtc_init_mode_enter) for rtc_init_mode_enter
    gd32f4xx_rtc.o(i.rtc_coarse_calibration_enable) refers to gd32f4xx_rtc.o(i.rtc_init_mode_exit) for rtc_init_mode_exit
    gd32f4xx_rtc.o(i.rtc_deinit) refers to gd32f4xx_rtc.o(i.rtc_init_mode_enter) for rtc_init_mode_enter
    gd32f4xx_rtc.o(i.rtc_deinit) refers to gd32f4xx_rtc.o(i.rtc_register_sync_wait) for rtc_register_sync_wait
    gd32f4xx_rtc.o(i.rtc_init) refers to gd32f4xx_rtc.o(i.rtc_init_mode_enter) for rtc_init_mode_enter
    gd32f4xx_rtc.o(i.rtc_init) refers to gd32f4xx_rtc.o(i.rtc_init_mode_exit) for rtc_init_mode_exit
    gd32f4xx_rtc.o(i.rtc_init) refers to gd32f4xx_rtc.o(i.rtc_register_sync_wait) for rtc_register_sync_wait
    gd32f4xx_rtc.o(i.rtc_refclock_detection_disable) refers to gd32f4xx_rtc.o(i.rtc_init_mode_enter) for rtc_init_mode_enter
    gd32f4xx_rtc.o(i.rtc_refclock_detection_disable) refers to gd32f4xx_rtc.o(i.rtc_init_mode_exit) for rtc_init_mode_exit
    gd32f4xx_rtc.o(i.rtc_refclock_detection_enable) refers to gd32f4xx_rtc.o(i.rtc_init_mode_enter) for rtc_init_mode_enter
    gd32f4xx_rtc.o(i.rtc_refclock_detection_enable) refers to gd32f4xx_rtc.o(i.rtc_init_mode_exit) for rtc_init_mode_exit
    gd32f4xx_rtc.o(i.rtc_second_adjust) refers to gd32f4xx_rtc.o(i.rtc_register_sync_wait) for rtc_register_sync_wait
    gd32f4xx_dci.o(i.dci_deinit) refers to gd32f4xx_rcu.o(i.rcu_periph_reset_enable) for rcu_periph_reset_enable
    gd32f4xx_dci.o(i.dci_deinit) refers to gd32f4xx_rcu.o(i.rcu_periph_reset_disable) for rcu_periph_reset_disable
    gd32f4xx_gpio.o(i.gpio_deinit) refers to gd32f4xx_rcu.o(i.rcu_periph_reset_enable) for rcu_periph_reset_enable
    gd32f4xx_gpio.o(i.gpio_deinit) refers to gd32f4xx_rcu.o(i.rcu_periph_reset_disable) for rcu_periph_reset_disable
    gd32f4xx_rcu.o(i.rcu_deinit) refers to gd32f4xx_rcu.o(i.rcu_osci_stab_wait) for rcu_osci_stab_wait
    gd32f4xx_rcu.o(i.rcu_osci_stab_wait) refers to gd32f4xx_rcu.o(i.rcu_flag_get) for rcu_flag_get
    gd32f4xx_trng.o(i.trng_deinit) refers to gd32f4xx_rcu.o(i.rcu_periph_reset_enable) for rcu_periph_reset_enable
    gd32f4xx_trng.o(i.trng_deinit) refers to gd32f4xx_rcu.o(i.rcu_periph_reset_disable) for rcu_periph_reset_disable
    gd32f4xx_adc.o(i.adc_deinit) refers to gd32f4xx_rcu.o(i.rcu_periph_reset_enable) for rcu_periph_reset_enable
    gd32f4xx_adc.o(i.adc_deinit) refers to gd32f4xx_rcu.o(i.rcu_periph_reset_disable) for rcu_periph_reset_disable
    gd32f4xx_can.o(i.can_debug_freeze_disable) refers to gd32f4xx_dbg.o(i.dbg_periph_disable) for dbg_periph_disable
    gd32f4xx_can.o(i.can_debug_freeze_enable) refers to gd32f4xx_dbg.o(i.dbg_periph_enable) for dbg_periph_enable
    gd32f4xx_can.o(i.can_deinit) refers to gd32f4xx_rcu.o(i.rcu_periph_reset_enable) for rcu_periph_reset_enable
    gd32f4xx_can.o(i.can_deinit) refers to gd32f4xx_rcu.o(i.rcu_periph_reset_disable) for rcu_periph_reset_disable
    gd32f4xx_can.o(i.can_interrupt_flag_get) refers to gd32f4xx_can.o(i.can_receive_message_length_get) for can_receive_message_length_get
    gd32f4xx_can.o(i.can_interrupt_flag_get) refers to gd32f4xx_can.o(i.can_error_get) for can_error_get
    gd32f4xx_ctc.o(i.ctc_deinit) refers to gd32f4xx_rcu.o(i.rcu_periph_reset_enable) for rcu_periph_reset_enable
    gd32f4xx_ctc.o(i.ctc_deinit) refers to gd32f4xx_rcu.o(i.rcu_periph_reset_disable) for rcu_periph_reset_disable
    gd32f4xx_dac.o(i.dac_deinit) refers to gd32f4xx_rcu.o(i.rcu_periph_reset_enable) for rcu_periph_reset_enable
    gd32f4xx_dac.o(i.dac_deinit) refers to gd32f4xx_rcu.o(i.rcu_periph_reset_disable) for rcu_periph_reset_disable
    gd32f4xx_enet.o(i.enet_deinit) refers to gd32f4xx_rcu.o(i.rcu_periph_reset_enable) for rcu_periph_reset_enable
    gd32f4xx_enet.o(i.enet_deinit) refers to gd32f4xx_rcu.o(i.rcu_periph_reset_disable) for rcu_periph_reset_disable
    gd32f4xx_enet.o(i.enet_deinit) refers to gd32f4xx_enet.o(i.enet_initpara_reset) for enet_initpara_reset
    gd32f4xx_enet.o(i.enet_descriptors_chain_init) refers to gd32f4xx_enet.o(.bss) for txdesc_tab
    gd32f4xx_enet.o(i.enet_descriptors_chain_init) refers to gd32f4xx_enet.o(.data) for dma_current_txdesc
    gd32f4xx_enet.o(i.enet_descriptors_ring_init) refers to gd32f4xx_enet.o(.bss) for txdesc_tab
    gd32f4xx_enet.o(i.enet_descriptors_ring_init) refers to gd32f4xx_enet.o(.data) for dma_current_txdesc
    gd32f4xx_enet.o(i.enet_disable) refers to gd32f4xx_enet.o(i.enet_tx_disable) for enet_tx_disable
    gd32f4xx_enet.o(i.enet_disable) refers to gd32f4xx_enet.o(i.enet_rx_disable) for enet_rx_disable
    gd32f4xx_enet.o(i.enet_enable) refers to gd32f4xx_enet.o(i.enet_tx_enable) for enet_tx_enable
    gd32f4xx_enet.o(i.enet_enable) refers to gd32f4xx_enet.o(i.enet_rx_enable) for enet_rx_enable
    gd32f4xx_enet.o(i.enet_frame_receive) refers to gd32f4xx_enet.o(.data) for dma_current_rxdesc
    gd32f4xx_enet.o(i.enet_frame_transmit) refers to gd32f4xx_enet.o(.data) for dma_current_txdesc
    gd32f4xx_enet.o(i.enet_init) refers to gd32f4xx_enet.o(i.enet_phy_config) for enet_phy_config
    gd32f4xx_enet.o(i.enet_init) refers to gd32f4xx_enet.o(i.enet_delay) for enet_delay
    gd32f4xx_enet.o(i.enet_init) refers to gd32f4xx_enet.o(i.enet_default_init) for enet_default_init
    gd32f4xx_enet.o(i.enet_init) refers to gd32f4xx_enet.o(i.enet_phy_write_read) for enet_phy_write_read
    gd32f4xx_enet.o(i.enet_init) refers to gd32f4xx_enet.o(.bss) for enet_initpara
    gd32f4xx_enet.o(i.enet_initpara_config) refers to gd32f4xx_enet.o(.bss) for enet_initpara
    gd32f4xx_enet.o(i.enet_initpara_reset) refers to gd32f4xx_enet.o(.bss) for enet_initpara
    gd32f4xx_enet.o(i.enet_phy_config) refers to gd32f4xx_rcu.o(i.rcu_clock_freq_get) for rcu_clock_freq_get
    gd32f4xx_enet.o(i.enet_phy_config) refers to gd32f4xx_enet.o(i.enet_phy_write_read) for enet_phy_write_read
    gd32f4xx_enet.o(i.enet_phy_config) refers to gd32f4xx_enet.o(i.enet_delay) for enet_delay
    gd32f4xx_enet.o(i.enet_phyloopback_disable) refers to gd32f4xx_enet.o(i.enet_phy_write_read) for enet_phy_write_read
    gd32f4xx_enet.o(i.enet_phyloopback_enable) refers to gd32f4xx_enet.o(i.enet_phy_write_read) for enet_phy_write_read
    gd32f4xx_enet.o(i.enet_ptp_normal_descriptors_chain_init) refers to gd32f4xx_enet.o(.bss) for txdesc_tab
    gd32f4xx_enet.o(i.enet_ptp_normal_descriptors_chain_init) refers to gd32f4xx_enet.o(.data) for dma_current_txdesc
    gd32f4xx_enet.o(i.enet_ptp_normal_descriptors_ring_init) refers to gd32f4xx_enet.o(.bss) for txdesc_tab
    gd32f4xx_enet.o(i.enet_ptp_normal_descriptors_ring_init) refers to gd32f4xx_enet.o(.data) for dma_current_txdesc
    gd32f4xx_enet.o(i.enet_ptpframe_receive_normal_mode) refers to gd32f4xx_enet.o(.data) for dma_current_rxdesc
    gd32f4xx_enet.o(i.enet_ptpframe_transmit_normal_mode) refers to gd32f4xx_enet.o(.data) for dma_current_txdesc
    gd32f4xx_enet.o(i.enet_registers_get) refers to gd32f4xx_enet.o(.constdata) for enet_reg_tab
    gd32f4xx_enet.o(i.enet_rxframe_drop) refers to gd32f4xx_enet.o(.data) for dma_current_rxdesc
    gd32f4xx_enet.o(i.enet_rxframe_size_get) refers to gd32f4xx_enet.o(i.enet_rxframe_drop) for enet_rxframe_drop
    gd32f4xx_enet.o(i.enet_rxframe_size_get) refers to gd32f4xx_enet.o(.data) for dma_current_rxdesc
    gd32f4xx_enet.o(i.enet_rxprocess_check_recovery) refers to gd32f4xx_enet.o(.data) for dma_current_rxdesc
    gd32f4xx_enet.o(i.enet_tx_disable) refers to gd32f4xx_enet.o(i.enet_txfifo_flush) for enet_txfifo_flush
    gd32f4xx_enet.o(i.enet_tx_enable) refers to gd32f4xx_enet.o(i.enet_txfifo_flush) for enet_txfifo_flush
    gd32f4xx_fmc.o(i.fmc_bank0_erase) refers to gd32f4xx_fmc.o(i.fmc_ready_wait) for fmc_ready_wait
    gd32f4xx_fmc.o(i.fmc_bank1_erase) refers to gd32f4xx_fmc.o(i.fmc_ready_wait) for fmc_ready_wait
    gd32f4xx_fmc.o(i.fmc_byte_program) refers to gd32f4xx_fmc.o(i.fmc_ready_wait) for fmc_ready_wait
    gd32f4xx_fmc.o(i.fmc_halfword_program) refers to gd32f4xx_fmc.o(i.fmc_ready_wait) for fmc_ready_wait
    gd32f4xx_fmc.o(i.fmc_mass_erase) refers to gd32f4xx_fmc.o(i.fmc_ready_wait) for fmc_ready_wait
    gd32f4xx_fmc.o(i.fmc_ready_wait) refers to gd32f4xx_fmc.o(i.fmc_state_get) for fmc_state_get
    gd32f4xx_fmc.o(i.fmc_sector_erase) refers to gd32f4xx_fmc.o(i.fmc_ready_wait) for fmc_ready_wait
    gd32f4xx_fmc.o(i.fmc_word_program) refers to gd32f4xx_fmc.o(i.fmc_ready_wait) for fmc_ready_wait
    gd32f4xx_fmc.o(i.ob_drp_disable) refers to gd32f4xx_fmc.o(i.fmc_ready_wait) for fmc_ready_wait
    gd32f4xx_fmc.o(i.ob_drp_disable) refers to gd32f4xx_fmc.o(i.ob_start) for ob_start
    gd32f4xx_fmc.o(i.ob_drp_enable) refers to gd32f4xx_fmc.o(i.fmc_ready_wait) for fmc_ready_wait
    gd32f4xx_fmc.o(i.ob_erase) refers to gd32f4xx_fmc.o(i.fmc_ready_wait) for fmc_ready_wait
    gd32f4xx_fmc.o(i.ob_security_protection_config) refers to gd32f4xx_fmc.o(i.fmc_ready_wait) for fmc_ready_wait
    gd32f4xx_fmc.o(i.ob_start) refers to gd32f4xx_fmc.o(i.fmc_ready_wait) for fmc_ready_wait
    gd32f4xx_fmc.o(i.ob_user_write) refers to gd32f4xx_fmc.o(i.fmc_ready_wait) for fmc_ready_wait
    gd32f4xx_fmc.o(i.ob_write_protection_disable) refers to gd32f4xx_fmc.o(i.fmc_ready_wait) for fmc_ready_wait
    gd32f4xx_fmc.o(i.ob_write_protection_enable) refers to gd32f4xx_fmc.o(i.fmc_ready_wait) for fmc_ready_wait
    gd32f4xx_i2c.o(i.i2c_clock_config) refers to gd32f4xx_rcu.o(i.rcu_clock_freq_get) for rcu_clock_freq_get
    gd32f4xx_i2c.o(i.i2c_deinit) refers to gd32f4xx_rcu.o(i.rcu_periph_reset_enable) for rcu_periph_reset_enable
    gd32f4xx_i2c.o(i.i2c_deinit) refers to gd32f4xx_rcu.o(i.rcu_periph_reset_disable) for rcu_periph_reset_disable
    gd32f4xx_ipa.o(i.ipa_deinit) refers to gd32f4xx_rcu.o(i.rcu_periph_reset_enable) for rcu_periph_reset_enable
    gd32f4xx_ipa.o(i.ipa_deinit) refers to gd32f4xx_rcu.o(i.rcu_periph_reset_disable) for rcu_periph_reset_disable
    gd32f4xx_iref.o(i.iref_deinit) refers to gd32f4xx_rcu.o(i.rcu_periph_reset_enable) for rcu_periph_reset_enable
    gd32f4xx_iref.o(i.iref_deinit) refers to gd32f4xx_rcu.o(i.rcu_periph_reset_disable) for rcu_periph_reset_disable
    gd32f4xx_misc.o(i.nvic_irq_enable) refers to gd32f4xx_misc.o(i.nvic_priority_group_set) for nvic_priority_group_set
    gd32f4xx_pmu.o(i.pmu_deinit) refers to gd32f4xx_rcu.o(i.rcu_periph_reset_enable) for rcu_periph_reset_enable
    gd32f4xx_pmu.o(i.pmu_deinit) refers to gd32f4xx_rcu.o(i.rcu_periph_reset_disable) for rcu_periph_reset_disable
    gd32f4xx_pmu.o(i.pmu_highdriver_switch_select) refers to gd32f4xx_pmu.o(i.pmu_flag_get) for pmu_flag_get
    gd32f4xx_pmu.o(i.pmu_to_deepsleepmode) refers to gd32f4xx_pmu.o(.bss) for reg_snap
    gd32f4xx_sdio.o(i.sdio_deinit) refers to gd32f4xx_rcu.o(i.rcu_periph_reset_enable) for rcu_periph_reset_enable
    gd32f4xx_sdio.o(i.sdio_deinit) refers to gd32f4xx_rcu.o(i.rcu_periph_reset_disable) for rcu_periph_reset_disable
    gd32f4xx_spi.o(i.i2s_psc_config) refers to gd32f4xx_rcu.o(i.rcu_osci_on) for rcu_osci_on
    gd32f4xx_spi.o(i.i2s_psc_config) refers to gd32f4xx_rcu.o(i.rcu_osci_stab_wait) for rcu_osci_stab_wait
    gd32f4xx_spi.o(i.i2s_psc_config) refers to gd32f4xx_rcu.o(i.rcu_i2s_clock_config) for rcu_i2s_clock_config
    gd32f4xx_spi.o(i.spi_i2s_deinit) refers to gd32f4xx_rcu.o(i.rcu_periph_reset_enable) for rcu_periph_reset_enable
    gd32f4xx_spi.o(i.spi_i2s_deinit) refers to gd32f4xx_rcu.o(i.rcu_periph_reset_disable) for rcu_periph_reset_disable
    gd32f4xx_syscfg.o(i.syscfg_deinit) refers to gd32f4xx_rcu.o(i.rcu_periph_reset_enable) for rcu_periph_reset_enable
    gd32f4xx_syscfg.o(i.syscfg_deinit) refers to gd32f4xx_rcu.o(i.rcu_periph_reset_disable) for rcu_periph_reset_disable
    gd32f4xx_timer.o(i.timer_deinit) refers to gd32f4xx_rcu.o(i.rcu_periph_reset_enable) for rcu_periph_reset_enable
    gd32f4xx_timer.o(i.timer_deinit) refers to gd32f4xx_rcu.o(i.rcu_periph_reset_disable) for rcu_periph_reset_disable
    gd32f4xx_timer.o(i.timer_external_clock_mode0_config) refers to gd32f4xx_timer.o(i.timer_external_trigger_config) for timer_external_trigger_config
    gd32f4xx_timer.o(i.timer_external_clock_mode1_config) refers to gd32f4xx_timer.o(i.timer_external_trigger_config) for timer_external_trigger_config
    gd32f4xx_timer.o(i.timer_external_trigger_as_external_clock_config) refers to gd32f4xx_timer.o(i.timer_input_trigger_source_select) for timer_input_trigger_source_select
    gd32f4xx_timer.o(i.timer_input_capture_config) refers to gd32f4xx_timer.o(i.timer_channel_input_capture_prescaler_config) for timer_channel_input_capture_prescaler_config
    gd32f4xx_timer.o(i.timer_input_pwm_capture_config) refers to gd32f4xx_timer.o(i.timer_channel_input_capture_prescaler_config) for timer_channel_input_capture_prescaler_config
    gd32f4xx_timer.o(i.timer_internal_trigger_as_external_clock_config) refers to gd32f4xx_timer.o(i.timer_input_trigger_source_select) for timer_input_trigger_source_select
    gd32f4xx_tli.o(i.tli_deinit) refers to gd32f4xx_rcu.o(i.rcu_periph_reset_enable) for rcu_periph_reset_enable
    gd32f4xx_tli.o(i.tli_deinit) refers to gd32f4xx_rcu.o(i.rcu_periph_reset_disable) for rcu_periph_reset_disable
    gd32f4xx_usart.o(i.usart_baudrate_set) refers to gd32f4xx_rcu.o(i.rcu_clock_freq_get) for rcu_clock_freq_get
    gd32f4xx_usart.o(i.usart_deinit) refers to gd32f4xx_rcu.o(i.rcu_periph_reset_enable) for rcu_periph_reset_enable
    gd32f4xx_usart.o(i.usart_deinit) refers to gd32f4xx_rcu.o(i.rcu_periph_reset_disable) for rcu_periph_reset_disable
    gd32f4xx_wwdgt.o(i.wwdgt_deinit) refers to gd32f4xx_rcu.o(i.rcu_periph_reset_enable) for rcu_periph_reset_enable
    gd32f4xx_wwdgt.o(i.wwdgt_deinit) refers to gd32f4xx_rcu.o(i.rcu_periph_reset_disable) for rcu_periph_reset_disable
    startup_gd32f450.o(RESET) refers to startup_gd32f450.o(STACK) for __initial_sp
    startup_gd32f450.o(RESET) refers to startup_gd32f450.o(.text) for Reset_Handler
    startup_gd32f450.o(RESET) refers to gd32f4xx_it.o(i.NMI_Handler) for NMI_Handler
    startup_gd32f450.o(RESET) refers to gd32f4xx_it.o(i.HardFault_Handler) for HardFault_Handler
    startup_gd32f450.o(RESET) refers to gd32f4xx_it.o(i.MemManage_Handler) for MemManage_Handler
    startup_gd32f450.o(RESET) refers to gd32f4xx_it.o(i.BusFault_Handler) for BusFault_Handler
    startup_gd32f450.o(RESET) refers to gd32f4xx_it.o(i.UsageFault_Handler) for UsageFault_Handler
    startup_gd32f450.o(RESET) refers to gd32f4xx_it.o(i.SVC_Handler) for SVC_Handler
    startup_gd32f450.o(RESET) refers to gd32f4xx_it.o(i.DebugMon_Handler) for DebugMon_Handler
    startup_gd32f450.o(RESET) refers to gd32f4xx_it.o(i.PendSV_Handler) for PendSV_Handler
    startup_gd32f450.o(RESET) refers to gd32f4xx_it.o(i.SysTick_Handler) for SysTick_Handler
    startup_gd32f450.o(RESET) refers to gd32f4xx_it.o(i.TIMER2_IRQHandler) for TIMER2_IRQHandler
    startup_gd32f450.o(RESET) refers to gd32f4xx_it.o(i.EXTI10_15_IRQHandler) for EXTI10_15_IRQHandler
    startup_gd32f450.o(RESET) refers to gd32f4xx_it.o(i.DMA1_Channel2_IRQHandler) for DMA1_Channel2_IRQHandler
    startup_gd32f450.o(RESET) refers to gd32f4xx_it.o(i.DMA1_Channel7_IRQHandler) for DMA1_Channel7_IRQHandler
    startup_gd32f450.o(RESET) refers to gd32f4xx_it.o(i.USART5_IRQHandler) for USART5_IRQHandler
    startup_gd32f450.o(.text) refers to system_gd32f4xx.o(i.SystemInit) for SystemInit
    startup_gd32f450.o(.text) refers to entry.o(.ARM.Collect$$$$00000000) for __main
    gd32f450i_eval.o(i.gd_eval_com_init) refers to gd32f4xx_rcu.o(i.rcu_periph_clock_enable) for rcu_periph_clock_enable
    gd32f450i_eval.o(i.gd_eval_com_init) refers to gd32f4xx_gpio.o(i.gpio_af_set) for gpio_af_set
    gd32f450i_eval.o(i.gd_eval_com_init) refers to gd32f4xx_gpio.o(i.gpio_mode_set) for gpio_mode_set
    gd32f450i_eval.o(i.gd_eval_com_init) refers to gd32f4xx_gpio.o(i.gpio_output_options_set) for gpio_output_options_set
    gd32f450i_eval.o(i.gd_eval_com_init) refers to gd32f4xx_usart.o(i.usart_deinit) for usart_deinit
    gd32f450i_eval.o(i.gd_eval_com_init) refers to gd32f4xx_usart.o(i.usart_baudrate_set) for usart_baudrate_set
    gd32f450i_eval.o(i.gd_eval_com_init) refers to gd32f4xx_usart.o(i.usart_receive_config) for usart_receive_config
    gd32f450i_eval.o(i.gd_eval_com_init) refers to gd32f4xx_usart.o(i.usart_transmit_config) for usart_transmit_config
    gd32f450i_eval.o(i.gd_eval_com_init) refers to gd32f4xx_usart.o(i.usart_enable) for usart_enable
    gd32f450i_eval.o(i.gd_eval_com_init) refers to gd32f450i_eval.o(.data) for COM_CLK
    gd32f450i_eval.o(i.gd_eval_key_init) refers to gd32f4xx_rcu.o(i.rcu_periph_clock_enable) for rcu_periph_clock_enable
    gd32f450i_eval.o(i.gd_eval_key_init) refers to gd32f4xx_gpio.o(i.gpio_mode_set) for gpio_mode_set
    gd32f450i_eval.o(i.gd_eval_key_init) refers to gd32f4xx_misc.o(i.nvic_irq_enable) for nvic_irq_enable
    gd32f450i_eval.o(i.gd_eval_key_init) refers to gd32f4xx_syscfg.o(i.syscfg_exti_line_config) for syscfg_exti_line_config
    gd32f450i_eval.o(i.gd_eval_key_init) refers to gd32f4xx_exti.o(i.exti_init) for exti_init
    gd32f450i_eval.o(i.gd_eval_key_init) refers to gd32f4xx_exti.o(i.exti_interrupt_flag_clear) for exti_interrupt_flag_clear
    gd32f450i_eval.o(i.gd_eval_key_init) refers to gd32f450i_eval.o(.data) for KEY_CLK
    gd32f450i_eval.o(i.gd_eval_key_state_get) refers to gd32f4xx_gpio.o(i.gpio_input_bit_get) for gpio_input_bit_get
    gd32f450i_eval.o(i.gd_eval_key_state_get) refers to gd32f450i_eval.o(.data) for KEY_PIN
    gd32f450i_eval.o(i.gd_eval_led_init) refers to gd32f4xx_rcu.o(i.rcu_periph_clock_enable) for rcu_periph_clock_enable
    gd32f450i_eval.o(i.gd_eval_led_init) refers to gd32f4xx_gpio.o(i.gpio_mode_set) for gpio_mode_set
    gd32f450i_eval.o(i.gd_eval_led_init) refers to gd32f4xx_gpio.o(i.gpio_output_options_set) for gpio_output_options_set
    gd32f450i_eval.o(i.gd_eval_led_init) refers to gd32f450i_eval.o(.data) for GPIO_CLK
    gd32f450i_eval.o(i.gd_eval_led_off) refers to gd32f450i_eval.o(.data) for GPIO_PIN
    gd32f450i_eval.o(i.gd_eval_led_on) refers to gd32f450i_eval.o(.data) for GPIO_PIN
    gd32f450i_eval.o(i.gd_eval_led_toggle) refers to gd32f450i_eval.o(.data) for GPIO_PIN
    bsp_beep.o(i.BEEP_KeyTone) refers to bsp_beep.o(i.BEEP_Start) for BEEP_Start
    bsp_beep.o(i.BEEP_Pro) refers to bsp_beep.o(i.bsp_SetTIMOutPWM) for bsp_SetTIMOutPWM
    bsp_beep.o(i.BEEP_Pro) refers to bsp_beep.o(.bss) for g_tBeep
    bsp_beep.o(i.BEEP_Start) refers to bsp_beep.o(i.bsp_SetTIMOutPWM) for bsp_SetTIMOutPWM
    bsp_beep.o(i.BEEP_Start) refers to bsp_beep.o(.bss) for g_tBeep
    bsp_beep.o(i.BEEP_Stop) refers to bsp_beep.o(i.bsp_SetTIMOutPWM) for bsp_SetTIMOutPWM
    bsp_beep.o(i.BEEP_Stop) refers to bsp_beep.o(.bss) for g_tBeep
    bsp_beep.o(i.bsp_SetTIMOutPWM) refers to gd32f4xx_timer.o(i.timer_channel_output_pulse_value_config) for timer_channel_output_pulse_value_config
    bsp_beep.o(i.bsp_SetTIMOutPWM) refers to gd32f4xx_rcu.o(i.rcu_periph_clock_enable) for rcu_periph_clock_enable
    bsp_beep.o(i.bsp_SetTIMOutPWM) refers to gd32f4xx_gpio.o(i.gpio_mode_set) for gpio_mode_set
    bsp_beep.o(i.bsp_SetTIMOutPWM) refers to gd32f4xx_gpio.o(i.gpio_output_options_set) for gpio_output_options_set
    bsp_beep.o(i.bsp_SetTIMOutPWM) refers to gd32f4xx_gpio.o(i.gpio_af_set) for gpio_af_set
    bsp_beep.o(i.bsp_SetTIMOutPWM) refers to gd32f4xx_rcu.o(i.rcu_timer_clock_prescaler_config) for rcu_timer_clock_prescaler_config
    bsp_beep.o(i.bsp_SetTIMOutPWM) refers to gd32f4xx_timer.o(i.timer_deinit) for timer_deinit
    bsp_beep.o(i.bsp_SetTIMOutPWM) refers to gd32f4xx_timer.o(i.timer_init) for timer_init
    bsp_beep.o(i.bsp_SetTIMOutPWM) refers to gd32f4xx_timer.o(i.timer_channel_output_config) for timer_channel_output_config
    bsp_beep.o(i.bsp_SetTIMOutPWM) refers to gd32f4xx_timer.o(i.timer_channel_output_mode_config) for timer_channel_output_mode_config
    bsp_beep.o(i.bsp_SetTIMOutPWM) refers to gd32f4xx_timer.o(i.timer_channel_output_shadow_config) for timer_channel_output_shadow_config
    bsp_beep.o(i.bsp_SetTIMOutPWM) refers to gd32f4xx_timer.o(i.timer_auto_reload_shadow_enable) for timer_auto_reload_shadow_enable
    bsp_beep.o(i.bsp_SetTIMOutPWM) refers to gd32f4xx_timer.o(i.timer_enable) for timer_enable
    bsp_beep.o(i.bsp_SetTIMOutPWM) refers to system_gd32f4xx.o(.data) for SystemCoreClock
    bsp_cpu_flash.o(i.FlashEease) refers to fmc_operation.o(i.fmc_erase_sector_by_address) for fmc_erase_sector_by_address
    bsp_cpu_flash.o(i.bsp_ReadCpuFlash) refers to fmc_operation.o(i.fmc_read_8bit_data) for fmc_read_8bit_data
    bsp_cpu_flash.o(i.bsp_WriteCpuFlash) refers to fmc_operation.o(i.fmc_write_8bit_data) for fmc_write_8bit_data
    devctrl.o(i.DcMotorCtrl) refers to gd32f4xx_timer.o(i.timer_channel_output_pulse_value_config) for timer_channel_output_pulse_value_config
    devctrl.o(i.EleCtrl) refers to gd32f4xx_gpio.o(i.gpio_bit_write) for gpio_bit_write
    devctrl.o(i.EleCtrl) refers to sys.o(i.delay_ms) for delay_ms
    devctrl.o(i.EleSwCtrl) refers to gd32f4xx_gpio.o(i.gpio_bit_write) for gpio_bit_write
    hmi_driver.o(i.ADDNU8) refers to hmi_driver.o(i.ADD_DATA) for ADD_DATA
    hmi_driver.o(i.ADD_DATA) refers to hmi_driver.o(.data) for len
    hmi_driver.o(i.ADD_DATA) refers to hmi_driver.o(.bss) for sendbuf
    hmi_driver.o(i.BEGIN_CMD) refers to hmi_driver.o(.data) for len
    hmi_driver.o(i.CalibrateTouchPane) refers to hmi_driver.o(i.BEGIN_CMD) for BEGIN_CMD
    hmi_driver.o(i.CalibrateTouchPane) refers to hmi_driver.o(i.ADD_DATA) for ADD_DATA
    hmi_driver.o(i.CalibrateTouchPane) refers to hmi_driver.o(i.END_CMD) for END_CMD
    hmi_driver.o(i.DisplayCut_Image) refers to hmi_driver.o(i.BEGIN_CMD) for BEGIN_CMD
    hmi_driver.o(i.DisplayCut_Image) refers to hmi_driver.o(i.ADD_DATA) for ADD_DATA
    hmi_driver.o(i.DisplayCut_Image) refers to hmi_driver.o(i.END_CMD) for END_CMD
    hmi_driver.o(i.Display_Image) refers to hmi_driver.o(i.BEGIN_CMD) for BEGIN_CMD
    hmi_driver.o(i.Display_Image) refers to hmi_driver.o(i.ADD_DATA) for ADD_DATA
    hmi_driver.o(i.Display_Image) refers to hmi_driver.o(i.END_CMD) for END_CMD
    hmi_driver.o(i.Display_Message) refers to hmi_driver.o(i.GetStrLen) for GetStrLen
    hmi_driver.o(i.Display_Message) refers to hmi_driver.o(i.BEGIN_CMD) for BEGIN_CMD
    hmi_driver.o(i.Display_Message) refers to hmi_driver.o(i.ADD_DATA) for ADD_DATA
    hmi_driver.o(i.Display_Message) refers to hmi_driver.o(i.SendStrings) for SendStrings
    hmi_driver.o(i.Display_Message) refers to hmi_driver.o(i.END_CMD) for END_CMD
    hmi_driver.o(i.Display_String) refers to hmi_driver.o(i.GetStrLen) for GetStrLen
    hmi_driver.o(i.Display_String) refers to hmi_driver.o(i.BEGIN_CMD) for BEGIN_CMD
    hmi_driver.o(i.Display_String) refers to hmi_driver.o(i.ADD_DATA) for ADD_DATA
    hmi_driver.o(i.Display_String) refers to hmi_driver.o(i.SendStrings) for SendStrings
    hmi_driver.o(i.Display_String) refers to hmi_driver.o(i.END_CMD) for END_CMD
    hmi_driver.o(i.END_CMD) refers to i2c.o(i.ISendByte) for ISendByte
    hmi_driver.o(i.END_CMD) refers to hmi_driver.o(.data) for len
    hmi_driver.o(i.END_CMD) refers to hmi_driver.o(.bss) for sendbuf
    hmi_driver.o(i.GUI_CleanScreen) refers to hmi_driver.o(i.BEGIN_CMD) for BEGIN_CMD
    hmi_driver.o(i.GUI_CleanScreen) refers to hmi_driver.o(i.ADD_DATA) for ADD_DATA
    hmi_driver.o(i.GUI_CleanScreen) refers to hmi_driver.o(i.END_CMD) for END_CMD
    hmi_driver.o(i.GUI_Line) refers to hmi_driver.o(i.BEGIN_CMD) for BEGIN_CMD
    hmi_driver.o(i.GUI_Line) refers to hmi_driver.o(i.ADD_DATA) for ADD_DATA
    hmi_driver.o(i.GUI_Line) refers to hmi_driver.o(i.END_CMD) for END_CMD
    hmi_driver.o(i.GUI_Rectangle) refers to hmi_driver.o(i.BEGIN_CMD) for BEGIN_CMD
    hmi_driver.o(i.GUI_Rectangle) refers to hmi_driver.o(i.ADD_DATA) for ADD_DATA
    hmi_driver.o(i.GUI_Rectangle) refers to hmi_driver.o(i.END_CMD) for END_CMD
    hmi_driver.o(i.GUI_RectangleFill) refers to hmi_driver.o(i.BEGIN_CMD) for BEGIN_CMD
    hmi_driver.o(i.GUI_RectangleFill) refers to hmi_driver.o(i.ADD_DATA) for ADD_DATA
    hmi_driver.o(i.GUI_RectangleFill) refers to hmi_driver.o(i.END_CMD) for END_CMD
    hmi_driver.o(i.GetCheckboxValue) refers to hmi_driver.o(i.BEGIN_CMD) for BEGIN_CMD
    hmi_driver.o(i.GetCheckboxValue) refers to hmi_driver.o(i.ADD_DATA) for ADD_DATA
    hmi_driver.o(i.GetCheckboxValue) refers to hmi_driver.o(i.END_CMD) for END_CMD
    hmi_driver.o(i.GetEditValue) refers to hmi_driver.o(i.BEGIN_CMD) for BEGIN_CMD
    hmi_driver.o(i.GetEditValue) refers to hmi_driver.o(i.ADD_DATA) for ADD_DATA
    hmi_driver.o(i.GetEditValue) refers to hmi_driver.o(i.END_CMD) for END_CMD
    hmi_driver.o(i.GetPage) refers to hmi_driver.o(i.BEGIN_CMD) for BEGIN_CMD
    hmi_driver.o(i.GetPage) refers to hmi_driver.o(i.ADD_DATA) for ADD_DATA
    hmi_driver.o(i.GetPage) refers to hmi_driver.o(i.END_CMD) for END_CMD
    hmi_driver.o(i.GetSliderValue) refers to hmi_driver.o(i.BEGIN_CMD) for BEGIN_CMD
    hmi_driver.o(i.GetSliderValue) refers to hmi_driver.o(i.ADD_DATA) for ADD_DATA
    hmi_driver.o(i.GetSliderValue) refers to hmi_driver.o(i.END_CMD) for END_CMD
    hmi_driver.o(i.GetTouchEditValue) refers to hmi_driver.o(i.BEGIN_CMD) for BEGIN_CMD
    hmi_driver.o(i.GetTouchEditValue) refers to hmi_driver.o(i.ADD_DATA) for ADD_DATA
    hmi_driver.o(i.GetTouchEditValue) refers to hmi_driver.o(i.END_CMD) for END_CMD
    hmi_driver.o(i.SendStrings) refers to hmi_driver.o(i.ADD_DATA) for ADD_DATA
    hmi_driver.o(i.SetBackLight) refers to hmi_driver.o(i.BEGIN_CMD) for BEGIN_CMD
    hmi_driver.o(i.SetBackLight) refers to hmi_driver.o(i.ADD_DATA) for ADD_DATA
    hmi_driver.o(i.SetBackLight) refers to hmi_driver.o(i.END_CMD) for END_CMD
    hmi_driver.o(i.SetBarGaugeValue) refers to hmi_driver.o(i.BEGIN_CMD) for BEGIN_CMD
    hmi_driver.o(i.SetBarGaugeValue) refers to hmi_driver.o(i.ADD_DATA) for ADD_DATA
    hmi_driver.o(i.SetBarGaugeValue) refers to hmi_driver.o(i.END_CMD) for END_CMD
    hmi_driver.o(i.SetBatteryValue) refers to hmi_driver.o(i.BEGIN_CMD) for BEGIN_CMD
    hmi_driver.o(i.SetBatteryValue) refers to hmi_driver.o(i.ADD_DATA) for ADD_DATA
    hmi_driver.o(i.SetBatteryValue) refers to hmi_driver.o(i.END_CMD) for END_CMD
    hmi_driver.o(i.SetCheckboxValue) refers to hmi_driver.o(i.BEGIN_CMD) for BEGIN_CMD
    hmi_driver.o(i.SetCheckboxValue) refers to hmi_driver.o(i.ADD_DATA) for ADD_DATA
    hmi_driver.o(i.SetCheckboxValue) refers to hmi_driver.o(i.END_CMD) for END_CMD
    hmi_driver.o(i.SetCircleGaugeValue) refers to hmi_driver.o(i.BEGIN_CMD) for BEGIN_CMD
    hmi_driver.o(i.SetCircleGaugeValue) refers to hmi_driver.o(i.ADD_DATA) for ADD_DATA
    hmi_driver.o(i.SetCircleGaugeValue) refers to hmi_driver.o(i.END_CMD) for END_CMD
    hmi_driver.o(i.SetConnect) refers to hmi_driver.o(i.BEGIN_CMD) for BEGIN_CMD
    hmi_driver.o(i.SetConnect) refers to hmi_driver.o(i.ADD_DATA) for ADD_DATA
    hmi_driver.o(i.SetConnect) refers to hmi_driver.o(i.END_CMD) for END_CMD
    hmi_driver.o(i.SetEditValue) refers to hmi_driver.o(i.GetStrLen) for GetStrLen
    hmi_driver.o(i.SetEditValue) refers to hmi_driver.o(i.BEGIN_CMD) for BEGIN_CMD
    hmi_driver.o(i.SetEditValue) refers to hmi_driver.o(i.ADD_DATA) for ADD_DATA
    hmi_driver.o(i.SetEditValue) refers to hmi_driver.o(i.SendStrings) for SendStrings
    hmi_driver.o(i.SetEditValue) refers to hmi_driver.o(i.END_CMD) for END_CMD
    hmi_driver.o(i.SetLableValue) refers to hmi_driver.o(i.GetStrLen) for GetStrLen
    hmi_driver.o(i.SetLableValue) refers to hmi_driver.o(i.BEGIN_CMD) for BEGIN_CMD
    hmi_driver.o(i.SetLableValue) refers to hmi_driver.o(i.ADD_DATA) for ADD_DATA
    hmi_driver.o(i.SetLableValue) refers to hmi_driver.o(i.SendStrings) for SendStrings
    hmi_driver.o(i.SetLableValue) refers to hmi_driver.o(i.END_CMD) for END_CMD
    hmi_driver.o(i.SetNumberValue) refers to hmi_driver.o(i.BEGIN_CMD) for BEGIN_CMD
    hmi_driver.o(i.SetNumberValue) refers to hmi_driver.o(i.ADD_DATA) for ADD_DATA
    hmi_driver.o(i.SetNumberValue) refers to hmi_driver.o(i.END_CMD) for END_CMD
    hmi_driver.o(i.SetPage) refers to hmi_driver.o(i.BEGIN_CMD) for BEGIN_CMD
    hmi_driver.o(i.SetPage) refers to hmi_driver.o(i.ADD_DATA) for ADD_DATA
    hmi_driver.o(i.SetPage) refers to hmi_driver.o(i.END_CMD) for END_CMD
    hmi_driver.o(i.SetProgressbarValue) refers to hmi_driver.o(i.BEGIN_CMD) for BEGIN_CMD
    hmi_driver.o(i.SetProgressbarValue) refers to hmi_driver.o(i.ADD_DATA) for ADD_DATA
    hmi_driver.o(i.SetProgressbarValue) refers to hmi_driver.o(i.END_CMD) for END_CMD
    hmi_driver.o(i.SetReset) refers to hmi_driver.o(i.BEGIN_CMD) for BEGIN_CMD
    hmi_driver.o(i.SetReset) refers to hmi_driver.o(i.ADD_DATA) for ADD_DATA
    hmi_driver.o(i.SetReset) refers to hmi_driver.o(i.END_CMD) for END_CMD
    hmi_driver.o(i.SetSliderValue) refers to hmi_driver.o(i.BEGIN_CMD) for BEGIN_CMD
    hmi_driver.o(i.SetSliderValue) refers to hmi_driver.o(i.ADD_DATA) for ADD_DATA
    hmi_driver.o(i.SetSliderValue) refers to hmi_driver.o(i.END_CMD) for END_CMD
    hmi_driver.o(i.SetThermometerValue) refers to hmi_driver.o(i.BEGIN_CMD) for BEGIN_CMD
    hmi_driver.o(i.SetThermometerValue) refers to hmi_driver.o(i.ADD_DATA) for ADD_DATA
    hmi_driver.o(i.SetThermometerValue) refers to hmi_driver.o(i.END_CMD) for END_CMD
    hmi_driver.o(i.SetTouchPaneOption) refers to hmi_driver.o(i.BEGIN_CMD) for BEGIN_CMD
    hmi_driver.o(i.SetTouchPaneOption) refers to hmi_driver.o(i.ADD_DATA) for ADD_DATA
    hmi_driver.o(i.SetTouchPaneOption) refers to hmi_driver.o(i.END_CMD) for END_CMD
    hmi_driver.o(i.SetWaterGaugeValue) refers to hmi_driver.o(i.BEGIN_CMD) for BEGIN_CMD
    hmi_driver.o(i.SetWaterGaugeValue) refers to hmi_driver.o(i.ADD_DATA) for ADD_DATA
    hmi_driver.o(i.SetWaterGaugeValue) refers to hmi_driver.o(i.END_CMD) for END_CMD
    hmi_driver.o(i.SetWaveformValue) refers to hmi_driver.o(i.BEGIN_CMD) for BEGIN_CMD
    hmi_driver.o(i.SetWaveformValue) refers to hmi_driver.o(i.ADD_DATA) for ADD_DATA
    hmi_driver.o(i.SetWaveformValue) refers to hmi_driver.o(i.END_CMD) for END_CMD
    hmi_driver.o(i.TestTouchPane) refers to hmi_driver.o(i.BEGIN_CMD) for BEGIN_CMD
    hmi_driver.o(i.TestTouchPane) refers to hmi_driver.o(i.ADD_DATA) for ADD_DATA
    hmi_driver.o(i.TestTouchPane) refers to hmi_driver.o(i.END_CMD) for END_CMD
    hmi_driver.o(i.WaveformDataClear) refers to hmi_driver.o(i.BEGIN_CMD) for BEGIN_CMD
    hmi_driver.o(i.WaveformDataClear) refers to hmi_driver.o(i.ADD_DATA) for ADD_DATA
    hmi_driver.o(i.WaveformDataClear) refers to hmi_driver.o(i.END_CMD) for END_CMD
    hmi_driver.o(i.WaveformDataInsert) refers to hmi_driver.o(i.BEGIN_CMD) for BEGIN_CMD
    hmi_driver.o(i.WaveformDataInsert) refers to hmi_driver.o(i.ADD_DATA) for ADD_DATA
    hmi_driver.o(i.WaveformDataInsert) refers to hmi_driver.o(i.END_CMD) for END_CMD
    hmi_driver.o(i.WaveformDataRefress) refers to hmi_driver.o(i.BEGIN_CMD) for BEGIN_CMD
    hmi_driver.o(i.WaveformDataRefress) refers to hmi_driver.o(i.ADD_DATA) for ADD_DATA
    hmi_driver.o(i.WaveformDataRefress) refers to hmi_driver.o(i.END_CMD) for END_CMD
    i2c.o(i.Ack_I2c) refers to gd32f4xx_gpio.o(i.gpio_bit_write) for gpio_bit_write
    i2c.o(i.Ack_I2c) refers to i2c.o(i._Nop) for _Nop
    i2c.o(i.IRcvByte) refers to i2c.o(i.Start_I2c) for Start_I2c
    i2c.o(i.IRcvByte) refers to i2c.o(i.SendByte) for SendByte
    i2c.o(i.IRcvByte) refers to i2c.o(i.RcvByte) for RcvByte
    i2c.o(i.IRcvByte) refers to i2c.o(i.Ack_I2c) for Ack_I2c
    i2c.o(i.IRcvByte) refers to i2c.o(i.Stop_I2c) for Stop_I2c
    i2c.o(i.IRcvByte) refers to i2c.o(.data) for ack
    i2c.o(i.ISendByte) refers to i2c.o(i.Start_I2c) for Start_I2c
    i2c.o(i.ISendByte) refers to i2c.o(i.SendByte) for SendByte
    i2c.o(i.ISendByte) refers to i2c.o(i.Stop_I2c) for Stop_I2c
    i2c.o(i.ISendByte) refers to i2c.o(.data) for ack
    i2c.o(i.RcvByte) refers to gd32f4xx_gpio.o(i.gpio_bit_write) for gpio_bit_write
    i2c.o(i.RcvByte) refers to i2c.o(i._Nop) for _Nop
    i2c.o(i.RcvByte) refers to gd32f4xx_gpio.o(i.gpio_input_bit_get) for gpio_input_bit_get
    i2c.o(i.SendByte) refers to gd32f4xx_gpio.o(i.gpio_bit_write) for gpio_bit_write
    i2c.o(i.SendByte) refers to i2c.o(i._Nop) for _Nop
    i2c.o(i.SendByte) refers to gd32f4xx_gpio.o(i.gpio_input_bit_get) for gpio_input_bit_get
    i2c.o(i.SendByte) refers to i2c.o(.data) for ack
    i2c.o(i.Start_I2c) refers to gd32f4xx_gpio.o(i.gpio_bit_write) for gpio_bit_write
    i2c.o(i.Start_I2c) refers to i2c.o(i._Nop) for _Nop
    i2c.o(i.Stop_I2c) refers to gd32f4xx_gpio.o(i.gpio_bit_write) for gpio_bit_write
    i2c.o(i.Stop_I2c) refers to i2c.o(i._Nop) for _Nop
    sensor.o(i.GetFlow) refers to timer.o(i.GetCapture) for GetCapture
    sensor.o(i.GetFlow) refers to sys.o(i.HAL_GetTick) for HAL_GetTick
    sensor.o(i.GetFlow) refers to sensor.o(.data) for init_flag
    sensor.o(i.GetFlow) refers to sensor.o(.bss) for sensor
    sensor.o(i.GetModbusPack) refers to sensor.o(.bss) for modbus_pack_usr
    sensor.o(i.GetModbusSens) refers to memcpya.o(.text) for __aeabi_memcpy
    sensor.o(i.GetModbusSens) refers to modbus.o(i.Modbus_Pack) for Modbus_Pack
    sensor.o(i.GetModbusSens) refers to sensor.o(.bss) for modbus_pack_usr
    sensor.o(i.GetPH_ORP) refers to sys.o(i.registerTick) for registerTick
    sensor.o(i.GetPH_ORP) refers to sys.o(i.GetTickResult) for GetTickResult
    sensor.o(i.GetPH_ORP) refers to sensor.o(i.GetModbusSens) for GetModbusSens
    sensor.o(i.GetPH_ORP) refers to sensor.o(i.GetSensor) for GetSensor
    sensor.o(i.GetPH_ORP) refers to sys.o(i.delay_ms) for delay_ms
    sensor.o(i.GetPH_ORP) refers to sensor.o(.data) for state
    sensor.o(i.GetSensor) refers to sensor.o(.bss) for sensor
    sensor.o(i.GetTds_EleCurr) refers to gd32f4xx_adc.o(i.adc_inserted_data_read) for adc_inserted_data_read
    sensor.o(i.GetTds_EleCurr) refers to gd32f4xx_adc.o(i.adc_software_trigger_enable) for adc_software_trigger_enable
    sensor.o(i.GetTds_EleCurr) refers to f2d.o(.text) for __aeabi_f2d
    sensor.o(i.GetTds_EleCurr) refers to ddiv.o(.text) for __aeabi_ddiv
    sensor.o(i.GetTds_EleCurr) refers to d2f.o(.text) for __aeabi_d2f
    sensor.o(i.GetTds_EleCurr) refers to dadd.o(.text) for __aeabi_drsub
    sensor.o(i.GetTds_EleCurr) refers to dmul.o(.text) for __aeabi_dmul
    sensor.o(i.GetTds_EleCurr) refers to gd32f4xx_gpio.o(i.gpio_bit_write) for gpio_bit_write
    sensor.o(i.GetTds_EleCurr) refers to sys.o(i.delay_us) for delay_us
    sensor.o(i.GetTds_EleCurr) refers to sensor.o(i.adc_channel_sample) for adc_channel_sample
    sensor.o(i.GetTds_EleCurr) refers to sensor.o(.bss) for adc1_val_buf
    sensor.o(i.GetTds_EleCurr) refers to sensor.o(.data) for result
    sensor.o(i.GetTds_EleCurr) refers to sensor.o(.constdata) for TDS_Test_Vaule
    sensor.o(i.GetTds_EleCurr) refers to printfa.o(i.__0printf) for __2printf
    sensor.o(i.GetWaterLevel) refers to gd32f4xx_gpio.o(i.gpio_input_bit_get) for gpio_input_bit_get
    sensor.o(i.GetWaterLevel) refers to sensor.o(i.GetSensor) for GetSensor
    sensor.o(i.GetWaterLevel) refers to sensor.o(.bss) for sensor
    sensor.o(i.GetWaterLevel) refers to sensor.o(.data) for result
    sensor.o(i.adc_channel_sample) refers to gd32f4xx_adc.o(i.adc_regular_channel_config) for adc_regular_channel_config
    sensor.o(i.adc_channel_sample) refers to gd32f4xx_adc.o(i.adc_software_trigger_enable) for adc_software_trigger_enable
    sensor.o(i.adc_channel_sample) refers to gd32f4xx_adc.o(i.adc_flag_get) for adc_flag_get
    sensor.o(i.adc_channel_sample) refers to gd32f4xx_adc.o(i.adc_flag_clear) for adc_flag_clear
    sensor.o(i.adc_channel_sample) refers to gd32f4xx_adc.o(i.adc_regular_data_read) for adc_regular_data_read
    sensor.o(i.calibration_sensors) refers to sys.o(i.registerTick) for registerTick
    sensor.o(i.calibration_sensors) refers to sys.o(i.GetTickResult) for GetTickResult
    sensor.o(i.calibration_sensors) refers to memcpya.o(.text) for __aeabi_memcpy4
    sensor.o(i.calibration_sensors) refers to modbus.o(i.Modbus_Pack) for Modbus_Pack
    sensor.o(i.calibration_sensors) refers to inout.o(i.GetInOut) for GetInOut
    sensor.o(i.calibration_sensors) refers to sensor.o(.data) for status
    sensor.o(i.calibration_sensors) refers to sensor.o(.bss) for modbus_pack_usr
    sensor.o(i.get_adc_buf) refers to sensor.o(.bss) for adc1_val_buf
    sensor.o(i.module_anlysis) refers to dfltui.o(.text) for __aeabi_ui2d
    sensor.o(i.module_anlysis) refers to ddiv.o(.text) for __aeabi_ddiv
    sensor.o(i.module_anlysis) refers to d2f.o(.text) for __aeabi_d2f
    sensor.o(i.module_anlysis) refers to sensor.o(.bss) for modbus_pack_usr
    sensor.o(i.orp_ph_process) refers to inout.o(i.GetInOut) for GetInOut
    sensor.o(i.orp_ph_process) refers to sensor.o(i.GetPH_ORP) for GetPH_ORP
    sensor.o(i.orp_ph_process) refers to sensor.o(i.GetModbusSens) for GetModbusSens
    sensor.o(i.orp_ph_process) refers to sensor.o(i.calibration_sensors) for calibration_sensors
    sensor.o(i.orp_ph_process) refers to sys.o(i.registerTick) for registerTick
    sensor.o(i.orp_ph_process) refers to modbus.o(i.RS485_Service) for RS485_Service
    sensor.o(i.orp_ph_process) refers to sensor.o(i.module_anlysis) for module_anlysis
    sensor.o(i.orp_ph_process) refers to sensor.o(.data) for tx_buf
    sensor.o(i.orp_ph_process) refers to sensor.o(.bss) for modbus_pack_usr
    sensor.o(i.sensor_process) refers to sensor.o(i.GetTds_EleCurr) for GetTds_EleCurr
    sensor.o(i.sensor_process) refers to sensor.o(i.GetFlow) for GetFlow
    sensor.o(i.sensor_process) refers to sensor.o(i.orp_ph_process) for orp_ph_process
    sensor.o(i.sensor_process) refers to sensor.o(i.GetWaterLevel) for GetWaterLevel
    timer.o(i.GetCapture) refers to timer.o(.data) for fq
    timer.o(i.HAL_TIM_IC_CaptureCallback) refers to timer.o(i.TIM3CaptureChannel3Callback) for TIM3CaptureChannel3Callback
    timer.o(i.TIM3CaptureChannel3Callback) refers to gd32f4xx_timer.o(i.timer_interrupt_flag_get) for timer_interrupt_flag_get
    timer.o(i.TIM3CaptureChannel3Callback) refers to gd32f4xx_timer.o(i.timer_interrupt_flag_clear) for timer_interrupt_flag_clear
    timer.o(i.TIM3CaptureChannel3Callback) refers to gd32f4xx_timer.o(i.timer_channel_capture_value_register_read) for timer_channel_capture_value_register_read
    timer.o(i.TIM3CaptureChannel3Callback) refers to timer.o(.data) for state
    fmc_operation.o(i.fmc_erase_sector_by_address) refers to printfa.o(i.__0printf) for __2printf
    fmc_operation.o(i.fmc_erase_sector_by_address) refers to fmc_operation.o(i.fmc_sector_info_get) for fmc_sector_info_get
    fmc_operation.o(i.fmc_erase_sector_by_address) refers to memcpya.o(.text) for __aeabi_memcpy4
    fmc_operation.o(i.fmc_erase_sector_by_address) refers to gd32f4xx_fmc.o(i.fmc_unlock) for fmc_unlock
    fmc_operation.o(i.fmc_erase_sector_by_address) refers to gd32f4xx_fmc.o(i.fmc_flag_clear) for fmc_flag_clear
    fmc_operation.o(i.fmc_erase_sector_by_address) refers to gd32f4xx_fmc.o(i.fmc_sector_erase) for fmc_sector_erase
    fmc_operation.o(i.fmc_erase_sector_by_address) refers to gd32f4xx_fmc.o(i.fmc_lock) for fmc_lock
    fmc_operation.o(i.fmc_read_16bit_data) refers to printfa.o(i.__0printf) for __2printf
    fmc_operation.o(i.fmc_read_32bit_data) refers to printfa.o(i.__0printf) for __2printf
    fmc_operation.o(i.fmc_read_8bit_data) refers to printfa.o(i.__0printf) for __2printf
    fmc_operation.o(i.fmc_sector_info_get) refers to memcpya.o(.text) for __aeabi_memcpy4
    fmc_operation.o(i.fmc_write_16bit_data) refers to printfa.o(i.__0printf) for __2printf
    fmc_operation.o(i.fmc_write_16bit_data) refers to gd32f4xx_fmc.o(i.fmc_unlock) for fmc_unlock
    fmc_operation.o(i.fmc_write_16bit_data) refers to gd32f4xx_fmc.o(i.fmc_flag_clear) for fmc_flag_clear
    fmc_operation.o(i.fmc_write_16bit_data) refers to fmc_operation.o(i.fmc_sector_info_get) for fmc_sector_info_get
    fmc_operation.o(i.fmc_write_16bit_data) refers to memcpya.o(.text) for __aeabi_memcpy4
    fmc_operation.o(i.fmc_write_16bit_data) refers to fmc_operation.o(i.sector_name_to_number) for sector_name_to_number
    fmc_operation.o(i.fmc_write_16bit_data) refers to gd32f4xx_fmc.o(i.fmc_sector_erase) for fmc_sector_erase
    fmc_operation.o(i.fmc_write_16bit_data) refers to gd32f4xx_fmc.o(i.fmc_halfword_program) for fmc_halfword_program
    fmc_operation.o(i.fmc_write_16bit_data) refers to gd32f4xx_fmc.o(i.fmc_lock) for fmc_lock
    fmc_operation.o(i.fmc_write_32bit_data) refers to printfa.o(i.__0printf) for __2printf
    fmc_operation.o(i.fmc_write_32bit_data) refers to gd32f4xx_fmc.o(i.fmc_unlock) for fmc_unlock
    fmc_operation.o(i.fmc_write_32bit_data) refers to gd32f4xx_fmc.o(i.fmc_flag_clear) for fmc_flag_clear
    fmc_operation.o(i.fmc_write_32bit_data) refers to fmc_operation.o(i.fmc_sector_info_get) for fmc_sector_info_get
    fmc_operation.o(i.fmc_write_32bit_data) refers to memcpya.o(.text) for __aeabi_memcpy4
    fmc_operation.o(i.fmc_write_32bit_data) refers to fmc_operation.o(i.sector_name_to_number) for sector_name_to_number
    fmc_operation.o(i.fmc_write_32bit_data) refers to gd32f4xx_fmc.o(i.fmc_sector_erase) for fmc_sector_erase
    fmc_operation.o(i.fmc_write_32bit_data) refers to gd32f4xx_fmc.o(i.fmc_word_program) for fmc_word_program
    fmc_operation.o(i.fmc_write_32bit_data) refers to gd32f4xx_fmc.o(i.fmc_lock) for fmc_lock
    fmc_operation.o(i.fmc_write_8bit_data) refers to printfa.o(i.__0printf) for __2printf
    fmc_operation.o(i.fmc_write_8bit_data) refers to gd32f4xx_fmc.o(i.fmc_unlock) for fmc_unlock
    fmc_operation.o(i.fmc_write_8bit_data) refers to gd32f4xx_fmc.o(i.fmc_flag_clear) for fmc_flag_clear
    fmc_operation.o(i.fmc_write_8bit_data) refers to fmc_operation.o(i.fmc_sector_info_get) for fmc_sector_info_get
    fmc_operation.o(i.fmc_write_8bit_data) refers to memcpya.o(.text) for __aeabi_memcpy4
    fmc_operation.o(i.fmc_write_8bit_data) refers to fmc_operation.o(i.sector_name_to_number) for sector_name_to_number
    fmc_operation.o(i.fmc_write_8bit_data) refers to gd32f4xx_fmc.o(i.fmc_sector_erase) for fmc_sector_erase
    fmc_operation.o(i.fmc_write_8bit_data) refers to gd32f4xx_fmc.o(i.fmc_byte_program) for fmc_byte_program
    fmc_operation.o(i.fmc_write_8bit_data) refers to gd32f4xx_fmc.o(i.fmc_lock) for fmc_lock
    app.o(i.FlowCtrl) refers to sensor.o(i.GetSensor) for GetSensor
    app.o(i.FlowCtrl) refers to f2d.o(.text) for __aeabi_f2d
    app.o(i.FlowCtrl) refers to pid.o(i.pid_proc) for pid_proc
    app.o(i.FlowCtrl) refers to devctrl.o(i.DcMotorCtrl) for DcMotorCtrl
    app.o(i.FlowCtrl) refers to app.o(.data) for dstTds
    app.o(i.Flow_Init) refers to pid.o(i.pid_init) for pid_init
    app.o(i.Flow_Init) refers to app.o(.data) for dstTds
    app.o(i.SystemParamsRead) refers to bsp_cpu_flash.o(i.bsp_ReadCpuFlash) for bsp_ReadCpuFlash
    app.o(i.TickTimeoutAb) refers to sys.o(i.GetTickStatus) for GetTickStatus
    app.o(i.TickTimeoutAb) refers to sys.o(i.registerTick) for registerTick
    app.o(i.TickTimeoutAb) refers to sys.o(i.GetTickResult) for GetTickResult
    app.o(i.TickTimeoutNor) refers to sys.o(i.GetTickStatus) for GetTickStatus
    app.o(i.TickTimeoutNor) refers to sys.o(i.GetTickResult) for GetTickResult
    app.o(i.TickTimeoutNor) refers to sys.o(i.registerTick) for registerTick
    app.o(i.abnormalDec) refers to sys.o(i.registerTick) for registerTick
    app.o(i.abnormalDec) refers to sys.o(i.GetTickResult) for GetTickResult
    app.o(i.abnormalDec) refers to sensor.o(i.GetSensor) for GetSensor
    app.o(i.abnormalDec) refers to f2d.o(.text) for __aeabi_f2d
    app.o(i.abnormalDec) refers to cdcmple.o(.text) for __aeabi_cdcmple
    app.o(i.abnormalDec) refers to app.o(i.TickTimeoutAb) for TickTimeoutAb
    app.o(i.abnormalDec) refers to app.o(i.TickTimeoutNor) for TickTimeoutNor
    app.o(i.abnormalDec) refers to sys.o(i.HAL_GetTick) for HAL_GetTick
    app.o(i.abnormalDec) refers to app.o(.data) for work_params
    app.o(i.app) refers to app.o(i.work_process) for work_process
    app.o(i.app_init) refers to modbus.o(i.RS485_Init) for RS485_Init
    app.o(i.app_test) refers to devctrl.o(i.EleSwCtrl) for EleSwCtrl
    app.o(i.app_test) refers to sys.o(i.delay_ms) for delay_ms
    app.o(i.app_test) refers to devctrl.o(i.DcMotorCtrl) for DcMotorCtrl
    app.o(i.app_test) refers to inout.o(i.Send_LED_Data) for Send_LED_Data
    app.o(i.ele_dev_proc) refers to sensor.o(i.GetSensor) for GetSensor
    app.o(i.ele_dev_proc) refers to devctrl.o(i.EleSwCtrl) for EleSwCtrl
    app.o(i.ele_dev_proc) refers to devctrl.o(i.DcMotorCtrl) for DcMotorCtrl
    app.o(i.ele_dev_proc) refers to app.o(i.abnormalDec) for abnormalDec
    app.o(i.ele_dev_proc) refers to app.o(i.FlowCtrl) for FlowCtrl
    app.o(i.ele_dev_proc) refers to sys.o(i.registerTick) for registerTick
    app.o(i.ele_dev_proc) refers to sys.o(i.GetTickResult) for GetTickResult
    app.o(i.ele_dev_proc) refers to app.o(.data) for work_params
    app.o(i.ele_process) refers to inout.o(i.GetInOut) for GetInOut
    app.o(i.ele_process) refers to app.o(i.module_reset) for module_reset
    app.o(i.ele_process) refers to inout.o(i.Soft_Reset) for Soft_Reset
    app.o(i.ele_process) refers to devctrl.o(i.EleSwCtrl) for EleSwCtrl
    app.o(i.ele_process) refers to devctrl.o(i.DcMotorCtrl) for DcMotorCtrl
    app.o(i.ele_process) refers to sys.o(i.registerTick) for registerTick
    app.o(i.ele_process) refers to sys.o(i.GetTickResult) for GetTickResult
    app.o(i.ele_process) refers to app.o(i.ele_dev_proc) for ele_dev_proc
    app.o(i.fill_pro) refers to hmi_driver.o(i.GUI_RectangleFill) for GUI_RectangleFill
    app.o(i.lcd_proc) refers to app_lcd.o(i.lcd_boot) for lcd_boot
    app.o(i.lcd_proc) refers to inout.o(i.touch_pro) for touch_pro
    app.o(i.lcd_proc) refers to sys.o(i.registerTick) for registerTick
    app.o(i.lcd_proc) refers to sys.o(i.GetTickResult) for GetTickResult
    app.o(i.lcd_proc) refers to inout.o(i.getTouch) for getTouch
    app.o(i.lcd_proc) refers to sensor.o(i.GetSensor) for GetSensor
    app.o(i.lcd_proc) refers to f2d.o(.text) for __aeabi_f2d
    app.o(i.lcd_proc) refers to printfa.o(i.__0sprintf) for __2sprintf
    app.o(i.lcd_proc) refers to strlen.o(.text) for strlen
    app.o(i.lcd_proc) refers to app.o(i.fill_pro) for fill_pro
    app.o(i.lcd_proc) refers to hmi_driver.o(i.Display_String) for Display_String
    app.o(i.lcd_proc) refers to app.o(i.module_dis_proc) for module_dis_proc
    app.o(i.lcd_proc) refers to app.o(.data) for i
    app.o(i.module_dis_proc) refers to sensor.o(i.GetSensor) for GetSensor
    app.o(i.module_dis_proc) refers to f2d.o(.text) for __aeabi_f2d
    app.o(i.module_dis_proc) refers to printfa.o(i.__0sprintf) for __2sprintf
    app.o(i.module_dis_proc) refers to strlen.o(.text) for strlen
    app.o(i.module_dis_proc) refers to hmi_driver.o(i.GUI_RectangleFill) for GUI_RectangleFill
    app.o(i.module_dis_proc) refers to hmi_driver.o(i.Display_String) for Display_String
    app.o(i.module_reset) refers to sensor.o(i.GetModbusSens) for GetModbusSens
    app.o(i.module_reset) refers to sys.o(i.delay_ms) for delay_ms
    app.o(i.work_process) refers to devctrl.o(i.DcMotorCtrl) for DcMotorCtrl
    app.o(i.work_process) refers to app.o(i.lcd_proc) for lcd_proc
    app.o(i.work_process) refers to sensor.o(i.sensor_process) for sensor_process
    app.o(i.work_process) refers to app.o(i.ele_process) for ele_process
    app.o(i.work_process) refers to app.o(.data) for work_params
    app_lcd.o(i.NotifyGetCheckbox) refers to app_lcd.o(.data) for update_en
    app_lcd.o(i.NotifyGetEdit) refers to hmi_driver.o(i.Display_Message) for Display_Message
    app_lcd.o(i.NotifyGetEdit) refers to app_lcd.o(.constdata) for String01
    app_lcd.o(i.NotifyGetPage) refers to app_lcd.o(.data) for page_Id
    app_lcd.o(i.NotifyGetSlider) refers to app_lcd.o(.data) for update_en
    app_lcd.o(i.NotifyGetTouchEdit) refers to hmi_driver.o(i.Display_Message) for Display_Message
    app_lcd.o(i.NotifyGetTouchEdit) refers to app_lcd.o(.constdata) for String04
    app_lcd.o(i.NotifyLable) refers to app_lcd.o(.data) for update_en
    app_lcd.o(i.NotifyNumber) refers to app_lcd.o(.data) for update_en
    app_lcd.o(i.NotifySetPage) refers to app_lcd.o(.data) for page_Id_bk
    app_lcd.o(i.NotifyTouchButton) refers to hmi_driver.o(i.GetEditValue) for GetEditValue
    app_lcd.o(i.NotifyTouchButton) refers to app_lcd.o(.data) for page_Id
    app_lcd.o(i.NotifyTouchCheckbox) refers to app_lcd.o(.data) for update_en
    app_lcd.o(i.NotifyTouchEdit) refers to hmi_driver.o(i.GetTouchEditValue) for GetTouchEditValue
    app_lcd.o(i.NotifyTouchEdit) refers to app_lcd.o(.data) for update_en
    app_lcd.o(i.NotifyTouchSlider) refers to hmi_driver.o(i.SetNumberValue) for SetNumberValue
    app_lcd.o(i.NotifyTouchSlider) refers to app_lcd.o(.data) for update_en
    app_lcd.o(i.ProcessMessage) refers to app_lcd.o(i.NotifySetPage) for NotifySetPage
    app_lcd.o(i.ProcessMessage) refers to app_lcd.o(i.NotifyTouchButton) for NotifyTouchButton
    app_lcd.o(i.ProcessMessage) refers to app_lcd.o(i.NotifyTouchCheckbox) for NotifyTouchCheckbox
    app_lcd.o(i.ProcessMessage) refers to app_lcd.o(i.NotifyTouchSlider) for NotifyTouchSlider
    app_lcd.o(i.ProcessMessage) refers to app_lcd.o(i.NotifyTouchEdit) for NotifyTouchEdit
    app_lcd.o(i.ProcessMessage) refers to app_lcd.o(i.NotifyGetEdit) for NotifyGetEdit
    app_lcd.o(i.ProcessMessage) refers to app_lcd.o(i.NotifyGetTouchEdit) for NotifyGetTouchEdit
    app_lcd.o(i.ProcessMessage) refers to app_lcd.o(i.NotifyGetPage) for NotifyGetPage
    app_lcd.o(i.ProcessMessage) refers to app_lcd.o(i.NotifyGetCheckbox) for NotifyGetCheckbox
    app_lcd.o(i.ProcessMessage) refers to app_lcd.o(i.NotifyGetSlider) for NotifyGetSlider
    app_lcd.o(i.ProcessMessage) refers to app_lcd.o(.bss) for cmd_buffer
    app_lcd.o(i.UpdateUI) refers to hmi_driver.o(i.SetNumberValue) for SetNumberValue
    app_lcd.o(i.UpdateUI) refers to hmi_driver.o(i.SetLableValue) for SetLableValue
    app_lcd.o(i.UpdateUI) refers to dflti.o(.text) for __aeabi_i2d
    app_lcd.o(i.UpdateUI) refers to dmul.o(.text) for __aeabi_dmul
    app_lcd.o(i.UpdateUI) refers to sin.o(i.__hardfp_sin) for __hardfp_sin
    app_lcd.o(i.UpdateUI) refers to dfixi.o(.text) for __aeabi_d2iz
    app_lcd.o(i.UpdateUI) refers to hmi_driver.o(i.SetWaveformValue) for SetWaveformValue
    app_lcd.o(i.UpdateUI) refers to hmi_driver.o(i.SetThermometerValue) for SetThermometerValue
    app_lcd.o(i.UpdateUI) refers to sys.o(i.delay_ms) for delay_ms
    app_lcd.o(i.UpdateUI) refers to hmi_driver.o(i.SetProgressbarValue) for SetProgressbarValue
    app_lcd.o(i.UpdateUI) refers to hmi_driver.o(i.SetCircleGaugeValue) for SetCircleGaugeValue
    app_lcd.o(i.UpdateUI) refers to hmi_driver.o(i.SetBarGaugeValue) for SetBarGaugeValue
    app_lcd.o(i.UpdateUI) refers to hmi_driver.o(i.SetBatteryValue) for SetBatteryValue
    app_lcd.o(i.UpdateUI) refers to hmi_driver.o(i.SetWaterGaugeValue) for SetWaterGaugeValue
    app_lcd.o(i.UpdateUI) refers to app_lcd.o(.data) for page_Id
    app_lcd.o(i.UpdateUI) refers to app_lcd.o(.constdata) for String03
    app_lcd.o(i.getuiCallback) refers to app_lcd.o(.data) for ui_usr
    app_lcd.o(i.lcd_boot) refers to app_lcd.o(i.reboot_progress) for reboot_progress
    app_lcd.o(i.lcd_boot) refers to hmi_driver.o(i.SetLableValue) for SetLableValue
    app_lcd.o(i.lcd_boot) refers to hmi_driver.o(i.SetPage) for SetPage
    app_lcd.o(i.lcd_boot) refers to inout.o(i.getTouch) for getTouch
    app_lcd.o(i.lcd_boot) refers to app_lcd.o(i.lcd_touch_interrupt) for lcd_touch_interrupt
    app_lcd.o(i.lcd_boot) refers to cmd_queue.o(i.queue_reset) for queue_reset
    app_lcd.o(i.lcd_boot) refers to i2c.o(i.IRcvByte) for IRcvByte
    app_lcd.o(i.lcd_boot) refers to cmd_queue.o(i.queue_find_cmd) for queue_find_cmd
    app_lcd.o(i.lcd_boot) refers to app_lcd.o(i.ProcessMessage) for ProcessMessage
    app_lcd.o(i.lcd_boot) refers to app_lcd.o(i.UpdateUI) for UpdateUI
    app_lcd.o(i.lcd_boot) refers to app_lcd.o(.data) for value
    app_lcd.o(i.lcd_boot) refers to app_lcd.o(.constdata) for String03
    app_lcd.o(i.lcd_boot) refers to app_lcd.o(.bss) for cmd_buffer
    app_lcd.o(i.lcd_init) refers to cmd_queue.o(i.queue_reset) for queue_reset
    app_lcd.o(i.lcd_init) refers to hmi_driver.o(i.SetReset) for SetReset
    app_lcd.o(i.lcd_init) refers to sys.o(i.delay_ms) for delay_ms
    app_lcd.o(i.lcd_init) refers to hmi_driver.o(i.SetPage) for SetPage
    app_lcd.o(i.lcd_init) refers to hmi_driver.o(i.SetBackLight) for SetBackLight
    app_lcd.o(i.lcd_init) refers to hmi_driver.o(i.SetProgressbarValue) for SetProgressbarValue
    app_lcd.o(i.lcd_init) refers to app_lcd.o(.data) for page_Id_bk
    app_lcd.o(i.lcd_touch_interrupt) refers to i2c.o(i.IRcvByte) for IRcvByte
    app_lcd.o(i.lcd_touch_interrupt) refers to cmd_queue.o(i.queue_push) for queue_push
    app_lcd.o(i.lcd_touch_interrupt) refers to cmd_queue.o(i.getQueue) for getQueue
    app_lcd.o(i.lcd_touch_interrupt) refers to inout.o(i.getTouch) for getTouch
    app_lcd.o(i.lcd_touch_interrupt) refers to cmd_queue.o(i.queue_clear) for queue_clear
    app_lcd.o(i.lcd_touch_interrupt) refers to app_lcd.o(.data) for command_cmd
    app_lcd.o(i.reboot_progress) refers to hmi_driver.o(i.SetProgressbarValue) for SetProgressbarValue
    cmd_queue.o(i.getQueue) refers to cmd_queue.o(.bss) for que
    cmd_queue.o(i.queue_clear) refers to memseta.o(.text) for __aeabi_memclr
    cmd_queue.o(i.queue_clear) refers to cmd_queue.o(.bss) for que
    cmd_queue.o(i.queue_clear) refers to cmd_queue.o(.data) for cmd_pos
    cmd_queue.o(i.queue_find_cmd) refers to cmd_queue.o(i.queue_pop) for queue_pop
    cmd_queue.o(i.queue_find_cmd) refers to cmd_queue.o(i.queue_size) for queue_size
    cmd_queue.o(i.queue_find_cmd) refers to cmd_queue.o(.data) for cmd_length
    cmd_queue.o(i.queue_pop) refers to cmd_queue.o(.bss) for que
    cmd_queue.o(i.queue_push) refers to cmd_queue.o(.bss) for que
    cmd_queue.o(i.queue_reset) refers to cmd_queue.o(.bss) for que
    cmd_queue.o(i.queue_reset) refers to cmd_queue.o(.data) for cmd_pos
    cmd_queue.o(i.queue_size) refers to cmd_queue.o(.bss) for que
    crc.o(i.CRC_Compute) refers to crc.o(.constdata) for auchCRCHi
    filter.o(i.filter) refers to sys.o(i.delay_ms) for delay_ms
    filter.o(i.filter2) refers to filter.o(.data) for count
    filter.o(i.filter2) refers to filter.o(.bss) for value_buf
    inout.o(i.GetInOut) refers to inout.o(.bss) for inout_usr
    inout.o(i.Send_LED_Data) refers to gd32f4xx_usart.o(i.usart_flag_get) for usart_flag_get
    inout.o(i.Send_LED_Data) refers to gd32f4xx_usart.o(i.usart_data_transmit) for usart_data_transmit
    inout.o(i.Send_LED_Data) refers to inout.o(.data) for send_time
    inout.o(i.Send_LED_Data) refers to inout.o(.bss) for LED_Ram
    inout.o(i.getTouch) refers to inout.o(.data) for touch_usr
    inout.o(i.inout_Init) refers to gd32f4xx_usart.o(i.usart_interrupt_enable) for usart_interrupt_enable
    inout.o(i.inout_Init) refers to gd32f4xx_usart.o(i.usart_flag_clear) for usart_flag_clear
    inout.o(i.inout_Init) refers to gd32f4xx_usart.o(i.usart_dma_receive_config) for usart_dma_receive_config
    inout.o(i.inout_Init) refers to gd32f4xx_misc.o(i.nvic_irq_enable) for nvic_irq_enable
    inout.o(i.inout_Init) refers to gd32f4xx_dma.o(i.dma_deinit) for dma_deinit
    inout.o(i.inout_Init) refers to gd32f4xx_dma.o(i.dma_single_data_mode_init) for dma_single_data_mode_init
    inout.o(i.inout_Init) refers to gd32f4xx_dma.o(i.dma_circulation_disable) for dma_circulation_disable
    inout.o(i.inout_Init) refers to gd32f4xx_dma.o(i.dma_channel_subperipheral_select) for dma_channel_subperipheral_select
    inout.o(i.inout_Init) refers to gd32f4xx_dma.o(i.dma_interrupt_enable) for dma_interrupt_enable
    inout.o(i.inout_Init) refers to gd32f4xx_dma.o(i.dma_channel_enable) for dma_channel_enable
    inout.o(i.inout_Init) refers to inout.o(.bss) for inout_usr
    inout.o(i.inout_callback) refers to gd32f4xx_usart.o(i.usart_dma_receive_config) for usart_dma_receive_config
    inout.o(i.inout_callback) refers to gd32f4xx_usart.o(i.usart_dma_transmit_config) for usart_dma_transmit_config
    inout.o(i.inout_callback) refers to gd32f4xx_dma.o(i.dma_deinit) for dma_deinit
    inout.o(i.inout_callback) refers to gd32f4xx_dma.o(i.dma_single_data_mode_init) for dma_single_data_mode_init
    inout.o(i.inout_callback) refers to gd32f4xx_misc.o(i.nvic_irq_enable) for nvic_irq_enable
    inout.o(i.inout_callback) refers to inout.o(.bss) for inout_usr
    inout.o(i.touch_pro) refers to inout.o(i.getTouch) for getTouch
    inout.o(i.touch_pro) refers to inout.o(.data) for touch_usr
    inout.o(i.touch_pro) refers to inout.o(.bss) for inout_usr
    modbus.o(i.Modbus_03_Solve) refers to sensor.o(i.GetModbusPack) for GetModbusPack
    modbus.o(i.Modbus_03_Solve) refers to modbus.o(.bss) for modbus_usr
    modbus.o(i.Modbus_Pack) refers to memcpya.o(.text) for __aeabi_memcpy
    modbus.o(i.Modbus_Pack) refers to crc.o(i.CRC_Compute) for CRC_Compute
    modbus.o(i.Modbus_Pack) refers to modbus.o(i.RS485_SendData) for RS485_SendData
    modbus.o(i.Modbus_Pack) refers to modbus.o(.bss) for modbus_usr
    modbus.o(i.Modbus_Pack) refers to modbus.o(.data) for calCRC
    modbus.o(i.RS485_Init) refers to gd32f4xx_dma.o(i.dma_deinit) for dma_deinit
    modbus.o(i.RS485_Init) refers to gd32f4xx_dma.o(i.dma_single_data_mode_init) for dma_single_data_mode_init
    modbus.o(i.RS485_Init) refers to gd32f4xx_dma.o(i.dma_circulation_disable) for dma_circulation_disable
    modbus.o(i.RS485_Init) refers to gd32f4xx_dma.o(i.dma_channel_subperipheral_select) for dma_channel_subperipheral_select
    modbus.o(i.RS485_Init) refers to gd32f4xx_dma.o(i.dma_interrupt_enable) for dma_interrupt_enable
    modbus.o(i.RS485_Init) refers to gd32f4xx_dma.o(i.dma_channel_enable) for dma_channel_enable
    modbus.o(i.RS485_Init) refers to modbus.o(.bss) for modbus_usr
    modbus.o(i.RS485_RxCpltCallback) refers to gd32f4xx_dma.o(i.dma_deinit) for dma_deinit
    modbus.o(i.RS485_RxCpltCallback) refers to gd32f4xx_dma.o(i.dma_single_data_mode_init) for dma_single_data_mode_init
    modbus.o(i.RS485_RxCpltCallback) refers to gd32f4xx_dma.o(i.dma_circulation_disable) for dma_circulation_disable
    modbus.o(i.RS485_RxCpltCallback) refers to gd32f4xx_dma.o(i.dma_channel_subperipheral_select) for dma_channel_subperipheral_select
    modbus.o(i.RS485_RxCpltCallback) refers to gd32f4xx_dma.o(i.dma_interrupt_enable) for dma_interrupt_enable
    modbus.o(i.RS485_RxCpltCallback) refers to gd32f4xx_dma.o(i.dma_channel_enable) for dma_channel_enable
    modbus.o(i.RS485_RxCpltCallback) refers to modbus.o(.bss) for modbus_usr
    modbus.o(i.RS485_SendData) refers to gd32f4xx_gpio.o(i.gpio_bit_set) for gpio_bit_set
    modbus.o(i.RS485_SendData) refers to gd32f4xx_usart.o(i.usart_data_transmit) for usart_data_transmit
    modbus.o(i.RS485_SendData) refers to gd32f4xx_usart.o(i.usart_flag_get) for usart_flag_get
    modbus.o(i.RS485_SendData) refers to gd32f4xx_gpio.o(i.gpio_bit_reset) for gpio_bit_reset
    modbus.o(i.RS485_SendData) refers to modbus.o(.bss) for modbus_usr
    modbus.o(i.RS485_Service) refers to gd32f4xx_gpio.o(i.gpio_bit_write) for gpio_bit_write
    modbus.o(i.RS485_Service) refers to crc.o(i.CRC_Compute) for CRC_Compute
    modbus.o(i.RS485_Service) refers to modbus.o(i.Modbus_03_Solve) for Modbus_03_Solve
    modbus.o(i.RS485_Service) refers to modbus.o(i.Modbus_06_Solve) for Modbus_06_Solve
    modbus.o(i.RS485_Service) refers to modbus.o(i.Modbus_16_Solve) for Modbus_16_Solve
    modbus.o(i.RS485_Service) refers to modbus.o(.bss) for modbus_usr
    modbus.o(i.RS485_Service) refers to modbus.o(.data) for calCRC
    modbus.o(i.getModbusPayload) refers to modbus.o(.bss) for modbus_usr
    pid.o(i.PIDCalc) refers to dadd.o(.text) for __aeabi_dsub
    pid.o(i.PIDCalc) refers to dmul.o(.text) for __aeabi_dmul
    pid.o(i.PIDCalc) refers to cdrcmple.o(.text) for __aeabi_cdrcmple
    pid.o(i.PIDCalc) refers to cdcmple.o(.text) for __aeabi_cdcmple
    pid.o(i.PIDCalc) refers to pid.o(.data) for last_result
    pid.o(i.PIDInit) refers to memseta.o(.text) for __aeabi_memclr4
    pid.o(i.pid_init) refers to pid.o(i.PIDInit) for PIDInit
    pid.o(i.pid_init) refers to f2d.o(.text) for __aeabi_f2d
    pid.o(i.pid_init) refers to pid.o(.bss) for sPID
    pid.o(i.pid_proc) refers to pid.o(i.PIDCalc) for PIDCalc
    pid.o(i.pid_proc) refers to dfixui.o(.text) for __aeabi_d2uiz
    pid.o(i.pid_proc) refers to pid.o(.data) for rIn_PID
    pid.o(i.pid_proc) refers to pid.o(.bss) for sPID
    sys.o(i.GetTickResult) refers to sys.o(.bss) for tick_usr
    sys.o(i.GetTickStatus) refers to sys.o(.bss) for tick_usr
    sys.o(i.HAL_GetTick) refers to gd32f4xx_it.o(.data) for sys_tick
    sys.o(i.TickPro) refers to sys.o(i.HAL_GetTick) for HAL_GetTick
    sys.o(i.TickPro) refers to sys.o(.bss) for tick_usr
    sys.o(i.delay_ms) refers to gd32f4xx_it.o(.data) for sys_tick
    sys.o(i.fputc) refers to gd32f4xx_usart.o(i.usart_data_transmit) for usart_data_transmit
    sys.o(i.fputc) refers to gd32f4xx_usart.o(i.usart_flag_get) for usart_flag_get
    sys.o(i.registerTick) refers to sys.o(i.HAL_GetTick) for HAL_GetTick
    sys.o(i.registerTick) refers to sys.o(.bss) for tick_usr
    sys.o(i.systick_config) refers to sys.o(i.NVIC_SetPriority) for NVIC_SetPriority
    sys.o(i.systick_config) refers to system_gd32f4xx.o(.data) for SystemCoreClock
    sin.o(i.__hardfp_sin) refers (Special) to iusefp.o(.text) for __I$use$fp
    sin.o(i.__hardfp_sin) refers to errno.o(i.__set_errno) for __set_errno
    sin.o(i.__hardfp_sin) refers to dunder.o(i.__mathlib_dbl_invalid) for __mathlib_dbl_invalid
    sin.o(i.__hardfp_sin) refers to dunder.o(i.__mathlib_dbl_infnan) for __mathlib_dbl_infnan
    sin.o(i.__hardfp_sin) refers to rred.o(i.__ieee754_rem_pio2) for __ieee754_rem_pio2
    sin.o(i.__hardfp_sin) refers to cos_i.o(i.__kernel_cos) for __kernel_cos
    sin.o(i.__hardfp_sin) refers to sin_i.o(i.__kernel_sin) for __kernel_sin
    sin.o(i.__softfp_sin) refers (Special) to iusefp.o(.text) for __I$use$fp
    sin.o(i.__softfp_sin) refers to sin.o(i.__hardfp_sin) for __hardfp_sin
    sin.o(i.sin) refers (Special) to iusefp.o(.text) for __I$use$fp
    sin.o(i.sin) refers to sin.o(i.__hardfp_sin) for __hardfp_sin
    sin_x.o(i.____hardfp_sin$lsc) refers (Special) to iusefp.o(.text) for __I$use$fp
    sin_x.o(i.____hardfp_sin$lsc) refers to errno.o(i.__set_errno) for __set_errno
    sin_x.o(i.____hardfp_sin$lsc) refers to dunder.o(i.__mathlib_dbl_infnan) for __mathlib_dbl_infnan
    sin_x.o(i.____hardfp_sin$lsc) refers to rred.o(i.__ieee754_rem_pio2) for __ieee754_rem_pio2
    sin_x.o(i.____hardfp_sin$lsc) refers to cos_i.o(i.__kernel_cos) for __kernel_cos
    sin_x.o(i.____hardfp_sin$lsc) refers to sin_i.o(i.__kernel_sin) for __kernel_sin
    sin_x.o(i.____softfp_sin$lsc) refers (Special) to iusefp.o(.text) for __I$use$fp
    sin_x.o(i.____softfp_sin$lsc) refers to sin_x.o(i.____hardfp_sin$lsc) for ____hardfp_sin$lsc
    sin_x.o(i.__sin$lsc) refers (Special) to iusefp.o(.text) for __I$use$fp
    sin_x.o(i.__sin$lsc) refers to sin_x.o(i.____hardfp_sin$lsc) for ____hardfp_sin$lsc
    entry.o(.ARM.Collect$$$$00000000) refers (Special) to entry10a.o(.ARM.Collect$$$$0000000D) for __rt_final_cpp
    entry.o(.ARM.Collect$$$$00000000) refers (Special) to entry11a.o(.ARM.Collect$$$$0000000F) for __rt_final_exit
    entry.o(.ARM.Collect$$$$00000000) refers (Special) to entry7b.o(.ARM.Collect$$$$00000008) for _main_clock
    entry.o(.ARM.Collect$$$$00000000) refers (Special) to entry8b.o(.ARM.Collect$$$$0000000A) for _main_cpp_init
    entry.o(.ARM.Collect$$$$00000000) refers (Special) to entry9a.o(.ARM.Collect$$$$0000000B) for _main_init
    entry.o(.ARM.Collect$$$$00000000) refers (Special) to entry5.o(.ARM.Collect$$$$00000004) for _main_scatterload
    entry.o(.ARM.Collect$$$$00000000) refers (Special) to entry2.o(.ARM.Collect$$$$00000001) for _main_stk
    printfb.o(i.__0fprintf$bare) refers to printfb.o(i._printf_core) for _printf_core
    printfb.o(i.__0fprintf$bare) refers to sys.o(i.fputc) for fputc
    printfb.o(i.__0printf$bare) refers to printfb.o(i._printf_core) for _printf_core
    printfb.o(i.__0printf$bare) refers to sys.o(i.fputc) for fputc
    printfb.o(i.__0printf$bare) refers to sys.o(.data) for __stdout
    printfb.o(i.__0snprintf$bare) refers to printfb.o(i._printf_core) for _printf_core
    printfb.o(i.__0snprintf$bare) refers to printfb.o(i._snputc) for _snputc
    printfb.o(i.__0sprintf$bare) refers to printfb.o(i._printf_core) for _printf_core
    printfb.o(i.__0sprintf$bare) refers to printfb.o(i._sputc) for _sputc
    printfb.o(i.__0vfprintf$bare) refers to printfb.o(i._printf_core) for _printf_core
    printfb.o(i.__0vfprintf$bare) refers to sys.o(i.fputc) for fputc
    printfb.o(i.__0vprintf$bare) refers to printfb.o(i._printf_core) for _printf_core
    printfb.o(i.__0vprintf$bare) refers to sys.o(i.fputc) for fputc
    printfb.o(i.__0vprintf$bare) refers to sys.o(.data) for __stdout
    printfb.o(i.__0vsnprintf$bare) refers to printfb.o(i._printf_core) for _printf_core
    printfb.o(i.__0vsnprintf$bare) refers to printfb.o(i._snputc) for _snputc
    printfb.o(i.__0vsprintf$bare) refers to printfb.o(i._printf_core) for _printf_core
    printfb.o(i.__0vsprintf$bare) refers to printfb.o(i._sputc) for _sputc
    printf0.o(i.__0fprintf$0) refers to printf0.o(i._printf_core) for _printf_core
    printf0.o(i.__0fprintf$0) refers to sys.o(i.fputc) for fputc
    printf0.o(i.__0printf$0) refers to printf0.o(i._printf_core) for _printf_core
    printf0.o(i.__0printf$0) refers to sys.o(i.fputc) for fputc
    printf0.o(i.__0printf$0) refers to sys.o(.data) for __stdout
    printf0.o(i.__0snprintf$0) refers to printf0.o(i._printf_core) for _printf_core
    printf0.o(i.__0snprintf$0) refers to printf0.o(i._snputc) for _snputc
    printf0.o(i.__0sprintf$0) refers to printf0.o(i._printf_core) for _printf_core
    printf0.o(i.__0sprintf$0) refers to printf0.o(i._sputc) for _sputc
    printf0.o(i.__0vfprintf$0) refers to printf0.o(i._printf_core) for _printf_core
    printf0.o(i.__0vfprintf$0) refers to sys.o(i.fputc) for fputc
    printf0.o(i.__0vprintf$0) refers to printf0.o(i._printf_core) for _printf_core
    printf0.o(i.__0vprintf$0) refers to sys.o(i.fputc) for fputc
    printf0.o(i.__0vprintf$0) refers to sys.o(.data) for __stdout
    printf0.o(i.__0vsnprintf$0) refers to printf0.o(i._printf_core) for _printf_core
    printf0.o(i.__0vsnprintf$0) refers to printf0.o(i._snputc) for _snputc
    printf0.o(i.__0vsprintf$0) refers to printf0.o(i._printf_core) for _printf_core
    printf0.o(i.__0vsprintf$0) refers to printf0.o(i._sputc) for _sputc
    printf1.o(i.__0fprintf$1) refers to printf1.o(i._printf_core) for _printf_core
    printf1.o(i.__0fprintf$1) refers to sys.o(i.fputc) for fputc
    printf1.o(i.__0printf$1) refers to printf1.o(i._printf_core) for _printf_core
    printf1.o(i.__0printf$1) refers to sys.o(i.fputc) for fputc
    printf1.o(i.__0printf$1) refers to sys.o(.data) for __stdout
    printf1.o(i.__0snprintf$1) refers to printf1.o(i._printf_core) for _printf_core
    printf1.o(i.__0snprintf$1) refers to printf1.o(i._snputc) for _snputc
    printf1.o(i.__0sprintf$1) refers to printf1.o(i._printf_core) for _printf_core
    printf1.o(i.__0sprintf$1) refers to printf1.o(i._sputc) for _sputc
    printf1.o(i.__0vfprintf$1) refers to printf1.o(i._printf_core) for _printf_core
    printf1.o(i.__0vfprintf$1) refers to sys.o(i.fputc) for fputc
    printf1.o(i.__0vprintf$1) refers to printf1.o(i._printf_core) for _printf_core
    printf1.o(i.__0vprintf$1) refers to sys.o(i.fputc) for fputc
    printf1.o(i.__0vprintf$1) refers to sys.o(.data) for __stdout
    printf1.o(i.__0vsnprintf$1) refers to printf1.o(i._printf_core) for _printf_core
    printf1.o(i.__0vsnprintf$1) refers to printf1.o(i._snputc) for _snputc
    printf1.o(i.__0vsprintf$1) refers to printf1.o(i._printf_core) for _printf_core
    printf1.o(i.__0vsprintf$1) refers to printf1.o(i._sputc) for _sputc
    printf1.o(i._printf_core) refers to uidiv.o(.text) for __aeabi_uidivmod
    printf2.o(i.__0fprintf$2) refers to printf2.o(i._printf_core) for _printf_core
    printf2.o(i.__0fprintf$2) refers to sys.o(i.fputc) for fputc
    printf2.o(i.__0printf$2) refers to printf2.o(i._printf_core) for _printf_core
    printf2.o(i.__0printf$2) refers to sys.o(i.fputc) for fputc
    printf2.o(i.__0printf$2) refers to sys.o(.data) for __stdout
    printf2.o(i.__0snprintf$2) refers to printf2.o(i._printf_core) for _printf_core
    printf2.o(i.__0snprintf$2) refers to printf2.o(i._snputc) for _snputc
    printf2.o(i.__0sprintf$2) refers to printf2.o(i._printf_core) for _printf_core
    printf2.o(i.__0sprintf$2) refers to printf2.o(i._sputc) for _sputc
    printf2.o(i.__0vfprintf$2) refers to printf2.o(i._printf_core) for _printf_core
    printf2.o(i.__0vfprintf$2) refers to sys.o(i.fputc) for fputc
    printf2.o(i.__0vprintf$2) refers to printf2.o(i._printf_core) for _printf_core
    printf2.o(i.__0vprintf$2) refers to sys.o(i.fputc) for fputc
    printf2.o(i.__0vprintf$2) refers to sys.o(.data) for __stdout
    printf2.o(i.__0vsnprintf$2) refers to printf2.o(i._printf_core) for _printf_core
    printf2.o(i.__0vsnprintf$2) refers to printf2.o(i._snputc) for _snputc
    printf2.o(i.__0vsprintf$2) refers to printf2.o(i._printf_core) for _printf_core
    printf2.o(i.__0vsprintf$2) refers to printf2.o(i._sputc) for _sputc
    printf3.o(i.__0fprintf$3) refers to printf3.o(i._printf_core) for _printf_core
    printf3.o(i.__0fprintf$3) refers to sys.o(i.fputc) for fputc
    printf3.o(i.__0printf$3) refers to printf3.o(i._printf_core) for _printf_core
    printf3.o(i.__0printf$3) refers to sys.o(i.fputc) for fputc
    printf3.o(i.__0printf$3) refers to sys.o(.data) for __stdout
    printf3.o(i.__0snprintf$3) refers to printf3.o(i._printf_core) for _printf_core
    printf3.o(i.__0snprintf$3) refers to printf3.o(i._snputc) for _snputc
    printf3.o(i.__0sprintf$3) refers to printf3.o(i._printf_core) for _printf_core
    printf3.o(i.__0sprintf$3) refers to printf3.o(i._sputc) for _sputc
    printf3.o(i.__0vfprintf$3) refers to printf3.o(i._printf_core) for _printf_core
    printf3.o(i.__0vfprintf$3) refers to sys.o(i.fputc) for fputc
    printf3.o(i.__0vprintf$3) refers to printf3.o(i._printf_core) for _printf_core
    printf3.o(i.__0vprintf$3) refers to sys.o(i.fputc) for fputc
    printf3.o(i.__0vprintf$3) refers to sys.o(.data) for __stdout
    printf3.o(i.__0vsnprintf$3) refers to printf3.o(i._printf_core) for _printf_core
    printf3.o(i.__0vsnprintf$3) refers to printf3.o(i._snputc) for _snputc
    printf3.o(i.__0vsprintf$3) refers to printf3.o(i._printf_core) for _printf_core
    printf3.o(i.__0vsprintf$3) refers to printf3.o(i._sputc) for _sputc
    printf3.o(i._printf_core) refers to uidiv.o(.text) for __aeabi_uidivmod
    printf4.o(i.__0fprintf$4) refers to printf4.o(i._printf_core) for _printf_core
    printf4.o(i.__0fprintf$4) refers to sys.o(i.fputc) for fputc
    printf4.o(i.__0printf$4) refers to printf4.o(i._printf_core) for _printf_core
    printf4.o(i.__0printf$4) refers to sys.o(i.fputc) for fputc
    printf4.o(i.__0printf$4) refers to sys.o(.data) for __stdout
    printf4.o(i.__0snprintf$4) refers to printf4.o(i._printf_core) for _printf_core
    printf4.o(i.__0snprintf$4) refers to printf4.o(i._snputc) for _snputc
    printf4.o(i.__0sprintf$4) refers to printf4.o(i._printf_core) for _printf_core
    printf4.o(i.__0sprintf$4) refers to printf4.o(i._sputc) for _sputc
    printf4.o(i.__0vfprintf$4) refers to printf4.o(i._printf_core) for _printf_core
    printf4.o(i.__0vfprintf$4) refers to sys.o(i.fputc) for fputc
    printf4.o(i.__0vprintf$4) refers to printf4.o(i._printf_core) for _printf_core
    printf4.o(i.__0vprintf$4) refers to sys.o(i.fputc) for fputc
    printf4.o(i.__0vprintf$4) refers to sys.o(.data) for __stdout
    printf4.o(i.__0vsnprintf$4) refers to printf4.o(i._printf_core) for _printf_core
    printf4.o(i.__0vsnprintf$4) refers to printf4.o(i._snputc) for _snputc
    printf4.o(i.__0vsprintf$4) refers to printf4.o(i._printf_core) for _printf_core
    printf4.o(i.__0vsprintf$4) refers to printf4.o(i._sputc) for _sputc
    printf4.o(i._printf_core) refers to uldiv.o(.text) for __aeabi_uldivmod
    printf5.o(i.__0fprintf$5) refers to printf5.o(i._printf_core) for _printf_core
    printf5.o(i.__0fprintf$5) refers to sys.o(i.fputc) for fputc
    printf5.o(i.__0printf$5) refers to printf5.o(i._printf_core) for _printf_core
    printf5.o(i.__0printf$5) refers to sys.o(i.fputc) for fputc
    printf5.o(i.__0printf$5) refers to sys.o(.data) for __stdout
    printf5.o(i.__0snprintf$5) refers to printf5.o(i._printf_core) for _printf_core
    printf5.o(i.__0snprintf$5) refers to printf5.o(i._snputc) for _snputc
    printf5.o(i.__0sprintf$5) refers to printf5.o(i._printf_core) for _printf_core
    printf5.o(i.__0sprintf$5) refers to printf5.o(i._sputc) for _sputc
    printf5.o(i.__0vfprintf$5) refers to printf5.o(i._printf_core) for _printf_core
    printf5.o(i.__0vfprintf$5) refers to sys.o(i.fputc) for fputc
    printf5.o(i.__0vprintf$5) refers to printf5.o(i._printf_core) for _printf_core
    printf5.o(i.__0vprintf$5) refers to sys.o(i.fputc) for fputc
    printf5.o(i.__0vprintf$5) refers to sys.o(.data) for __stdout
    printf5.o(i.__0vsnprintf$5) refers to printf5.o(i._printf_core) for _printf_core
    printf5.o(i.__0vsnprintf$5) refers to printf5.o(i._snputc) for _snputc
    printf5.o(i.__0vsprintf$5) refers to printf5.o(i._printf_core) for _printf_core
    printf5.o(i.__0vsprintf$5) refers to printf5.o(i._sputc) for _sputc
    printf5.o(i._printf_core) refers to uldiv.o(.text) for __aeabi_uldivmod
    printf6.o(i.__0fprintf$6) refers to printf6.o(i._printf_core) for _printf_core
    printf6.o(i.__0fprintf$6) refers to sys.o(i.fputc) for fputc
    printf6.o(i.__0printf$6) refers to printf6.o(i._printf_core) for _printf_core
    printf6.o(i.__0printf$6) refers to sys.o(i.fputc) for fputc
    printf6.o(i.__0printf$6) refers to sys.o(.data) for __stdout
    printf6.o(i.__0snprintf$6) refers to printf6.o(i._printf_core) for _printf_core
    printf6.o(i.__0snprintf$6) refers to printf6.o(i._snputc) for _snputc
    printf6.o(i.__0sprintf$6) refers to printf6.o(i._printf_core) for _printf_core
    printf6.o(i.__0sprintf$6) refers to printf6.o(i._sputc) for _sputc
    printf6.o(i.__0vfprintf$6) refers to printf6.o(i._printf_core) for _printf_core
    printf6.o(i.__0vfprintf$6) refers to sys.o(i.fputc) for fputc
    printf6.o(i.__0vprintf$6) refers to printf6.o(i._printf_core) for _printf_core
    printf6.o(i.__0vprintf$6) refers to sys.o(i.fputc) for fputc
    printf6.o(i.__0vprintf$6) refers to sys.o(.data) for __stdout
    printf6.o(i.__0vsnprintf$6) refers to printf6.o(i._printf_core) for _printf_core
    printf6.o(i.__0vsnprintf$6) refers to printf6.o(i._snputc) for _snputc
    printf6.o(i.__0vsprintf$6) refers to printf6.o(i._printf_core) for _printf_core
    printf6.o(i.__0vsprintf$6) refers to printf6.o(i._sputc) for _sputc
    printf6.o(i._printf_core) refers to printf6.o(i._printf_pre_padding) for _printf_pre_padding
    printf6.o(i._printf_core) refers to uidiv.o(.text) for __aeabi_uidivmod
    printf6.o(i._printf_core) refers to printf6.o(i._printf_post_padding) for _printf_post_padding
    printf7.o(i.__0fprintf$7) refers to printf7.o(i._printf_core) for _printf_core
    printf7.o(i.__0fprintf$7) refers to sys.o(i.fputc) for fputc
    printf7.o(i.__0printf$7) refers to printf7.o(i._printf_core) for _printf_core
    printf7.o(i.__0printf$7) refers to sys.o(i.fputc) for fputc
    printf7.o(i.__0printf$7) refers to sys.o(.data) for __stdout
    printf7.o(i.__0snprintf$7) refers to printf7.o(i._printf_core) for _printf_core
    printf7.o(i.__0snprintf$7) refers to printf7.o(i._snputc) for _snputc
    printf7.o(i.__0sprintf$7) refers to printf7.o(i._printf_core) for _printf_core
    printf7.o(i.__0sprintf$7) refers to printf7.o(i._sputc) for _sputc
    printf7.o(i.__0vfprintf$7) refers to printf7.o(i._printf_core) for _printf_core
    printf7.o(i.__0vfprintf$7) refers to sys.o(i.fputc) for fputc
    printf7.o(i.__0vprintf$7) refers to printf7.o(i._printf_core) for _printf_core
    printf7.o(i.__0vprintf$7) refers to sys.o(i.fputc) for fputc
    printf7.o(i.__0vprintf$7) refers to sys.o(.data) for __stdout
    printf7.o(i.__0vsnprintf$7) refers to printf7.o(i._printf_core) for _printf_core
    printf7.o(i.__0vsnprintf$7) refers to printf7.o(i._snputc) for _snputc
    printf7.o(i.__0vsprintf$7) refers to printf7.o(i._printf_core) for _printf_core
    printf7.o(i.__0vsprintf$7) refers to printf7.o(i._sputc) for _sputc
    printf7.o(i._printf_core) refers to printf7.o(i._printf_pre_padding) for _printf_pre_padding
    printf7.o(i._printf_core) refers to uldiv.o(.text) for __aeabi_uldivmod
    printf7.o(i._printf_core) refers to printf7.o(i._printf_post_padding) for _printf_post_padding
    printf8.o(i.__0fprintf$8) refers to printf8.o(i._printf_core) for _printf_core
    printf8.o(i.__0fprintf$8) refers to sys.o(i.fputc) for fputc
    printf8.o(i.__0printf$8) refers to printf8.o(i._printf_core) for _printf_core
    printf8.o(i.__0printf$8) refers to sys.o(i.fputc) for fputc
    printf8.o(i.__0printf$8) refers to sys.o(.data) for __stdout
    printf8.o(i.__0snprintf$8) refers to printf8.o(i._printf_core) for _printf_core
    printf8.o(i.__0snprintf$8) refers to printf8.o(i._snputc) for _snputc
    printf8.o(i.__0sprintf$8) refers to printf8.o(i._printf_core) for _printf_core
    printf8.o(i.__0sprintf$8) refers to printf8.o(i._sputc) for _sputc
    printf8.o(i.__0vfprintf$8) refers to printf8.o(i._printf_core) for _printf_core
    printf8.o(i.__0vfprintf$8) refers to sys.o(i.fputc) for fputc
    printf8.o(i.__0vprintf$8) refers to printf8.o(i._printf_core) for _printf_core
    printf8.o(i.__0vprintf$8) refers to sys.o(i.fputc) for fputc
    printf8.o(i.__0vprintf$8) refers to sys.o(.data) for __stdout
    printf8.o(i.__0vsnprintf$8) refers to printf8.o(i._printf_core) for _printf_core
    printf8.o(i.__0vsnprintf$8) refers to printf8.o(i._snputc) for _snputc
    printf8.o(i.__0vsprintf$8) refers to printf8.o(i._printf_core) for _printf_core
    printf8.o(i.__0vsprintf$8) refers to printf8.o(i._sputc) for _sputc
    printf8.o(i._printf_core) refers to printf8.o(i._printf_pre_padding) for _printf_pre_padding
    printf8.o(i._printf_core) refers to uldiv.o(.text) for __aeabi_uldivmod
    printf8.o(i._printf_core) refers to printf8.o(i._printf_post_padding) for _printf_post_padding
    printfa.o(i.__0fprintf) refers (Special) to iusefp.o(.text) for __I$use$fp
    printfa.o(i.__0fprintf) refers to printfa.o(i._printf_core) for _printf_core
    printfa.o(i.__0fprintf) refers to sys.o(i.fputc) for fputc
    printfa.o(i.__0printf) refers (Special) to iusefp.o(.text) for __I$use$fp
    printfa.o(i.__0printf) refers to printfa.o(i._printf_core) for _printf_core
    printfa.o(i.__0printf) refers to sys.o(i.fputc) for fputc
    printfa.o(i.__0printf) refers to sys.o(.data) for __stdout
    printfa.o(i.__0snprintf) refers (Special) to iusefp.o(.text) for __I$use$fp
    printfa.o(i.__0snprintf) refers to printfa.o(i._printf_core) for _printf_core
    printfa.o(i.__0snprintf) refers to printfa.o(i._snputc) for _snputc
    printfa.o(i.__0sprintf) refers (Special) to iusefp.o(.text) for __I$use$fp
    printfa.o(i.__0sprintf) refers to printfa.o(i._printf_core) for _printf_core
    printfa.o(i.__0sprintf) refers to printfa.o(i._sputc) for _sputc
    printfa.o(i.__0vfprintf) refers (Special) to iusefp.o(.text) for __I$use$fp
    printfa.o(i.__0vfprintf) refers to printfa.o(i._printf_core) for _printf_core
    printfa.o(i.__0vfprintf) refers to sys.o(i.fputc) for fputc
    printfa.o(i.__0vprintf) refers (Special) to iusefp.o(.text) for __I$use$fp
    printfa.o(i.__0vprintf) refers to printfa.o(i._printf_core) for _printf_core
    printfa.o(i.__0vprintf) refers to sys.o(i.fputc) for fputc
    printfa.o(i.__0vprintf) refers to sys.o(.data) for __stdout
    printfa.o(i.__0vsnprintf) refers (Special) to iusefp.o(.text) for __I$use$fp
    printfa.o(i.__0vsnprintf) refers to printfa.o(i._printf_core) for _printf_core
    printfa.o(i.__0vsnprintf) refers to printfa.o(i._snputc) for _snputc
    printfa.o(i.__0vsprintf) refers (Special) to iusefp.o(.text) for __I$use$fp
    printfa.o(i.__0vsprintf) refers to printfa.o(i._printf_core) for _printf_core
    printfa.o(i.__0vsprintf) refers to printfa.o(i._sputc) for _sputc
    printfa.o(i._fp_digits) refers (Special) to iusefp.o(.text) for __I$use$fp
    printfa.o(i._fp_digits) refers to dmul.o(.text) for __aeabi_dmul
    printfa.o(i._fp_digits) refers to ddiv.o(.text) for __aeabi_ddiv
    printfa.o(i._fp_digits) refers to cdrcmple.o(.text) for __aeabi_cdrcmple
    printfa.o(i._fp_digits) refers to dadd.o(.text) for __aeabi_dadd
    printfa.o(i._fp_digits) refers to dfixul.o(.text) for __aeabi_d2ulz
    printfa.o(i._fp_digits) refers to uldiv.o(.text) for __aeabi_uldivmod
    printfa.o(i._printf_core) refers (Special) to iusefp.o(.text) for __I$use$fp
    printfa.o(i._printf_core) refers to printfa.o(i._printf_pre_padding) for _printf_pre_padding
    printfa.o(i._printf_core) refers to uldiv.o(.text) for __aeabi_uldivmod
    printfa.o(i._printf_core) refers to printfa.o(i._printf_post_padding) for _printf_post_padding
    printfa.o(i._printf_core) refers to printfa.o(i._fp_digits) for _fp_digits
    printfa.o(i._printf_core) refers to uidiv.o(.text) for __aeabi_uidivmod
    printfa.o(i._printf_post_padding) refers (Special) to iusefp.o(.text) for __I$use$fp
    printfa.o(i._printf_pre_padding) refers (Special) to iusefp.o(.text) for __I$use$fp
    printfa.o(i._snputc) refers (Special) to iusefp.o(.text) for __I$use$fp
    printfa.o(i._sputc) refers (Special) to iusefp.o(.text) for __I$use$fp
    dadd.o(.text) refers (Special) to iusefp.o(.text) for __I$use$fp
    dadd.o(.text) refers to llshl.o(.text) for __aeabi_llsl
    dadd.o(.text) refers to llsshr.o(.text) for __aeabi_lasr
    dadd.o(.text) refers to depilogue.o(.text) for _double_epilogue
    dmul.o(.text) refers (Special) to iusefp.o(.text) for __I$use$fp
    dmul.o(.text) refers to depilogue.o(.text) for _double_epilogue
    ddiv.o(.text) refers (Special) to iusefp.o(.text) for __I$use$fp
    ddiv.o(.text) refers to depilogue.o(.text) for _double_round
    dflti.o(.text) refers (Special) to iusefp.o(.text) for __I$use$fp
    dflti.o(.text) refers to depilogue.o(.text) for _double_epilogue
    dfltui.o(.text) refers (Special) to iusefp.o(.text) for __I$use$fp
    dfltui.o(.text) refers to depilogue.o(.text) for _double_epilogue
    dfixi.o(.text) refers (Special) to iusefp.o(.text) for __I$use$fp
    dfixi.o(.text) refers to llushr.o(.text) for __aeabi_llsr
    dfixui.o(.text) refers (Special) to iusefp.o(.text) for __I$use$fp
    dfixui.o(.text) refers to llushr.o(.text) for __aeabi_llsr
    f2d.o(.text) refers (Special) to iusefp.o(.text) for __I$use$fp
    cdcmple.o(.text) refers (Special) to iusefp.o(.text) for __I$use$fp
    cdrcmple.o(.text) refers (Special) to iusefp.o(.text) for __I$use$fp
    d2f.o(.text) refers (Special) to iusefp.o(.text) for __I$use$fp
    d2f.o(.text) refers to fepilogue.o(.text) for _float_round
    cos_i.o(i.__kernel_cos) refers (Special) to iusefp.o(.text) for __I$use$fp
    cos_i.o(i.__kernel_cos) refers to dfixi.o(.text) for __aeabi_d2iz
    cos_i.o(i.__kernel_cos) refers to dmul.o(.text) for __aeabi_dmul
    cos_i.o(i.__kernel_cos) refers to poly.o(i.__kernel_poly) for __kernel_poly
    cos_i.o(i.__kernel_cos) refers to dadd.o(.text) for __aeabi_dsub
    cos_i.o(i.__kernel_cos) refers to cos_i.o(.constdata) for .constdata
    cos_i.o(.constdata) refers (Special) to iusefp.o(.text) for __I$use$fp
    dunder.o(i.__mathlib_dbl_divzero) refers to ddiv.o(.text) for __aeabi_ddiv
    dunder.o(i.__mathlib_dbl_infnan) refers to dadd.o(.text) for __aeabi_dadd
    dunder.o(i.__mathlib_dbl_infnan2) refers to dadd.o(.text) for __aeabi_dadd
    dunder.o(i.__mathlib_dbl_invalid) refers to ddiv.o(.text) for __aeabi_ddiv
    dunder.o(i.__mathlib_dbl_overflow) refers to dmul.o(.text) for __aeabi_dmul
    dunder.o(i.__mathlib_dbl_posinfnan) refers to dmul.o(.text) for __aeabi_dmul
    dunder.o(i.__mathlib_dbl_underflow) refers to dmul.o(.text) for __aeabi_dmul
    rred.o(i.__ieee754_rem_pio2) refers (Special) to iusefp.o(.text) for __I$use$fp
    rred.o(i.__ieee754_rem_pio2) refers to dadd.o(.text) for __aeabi_dsub
    rred.o(i.__ieee754_rem_pio2) refers to fabs.o(i.fabs) for fabs
    rred.o(i.__ieee754_rem_pio2) refers to dmul.o(.text) for __aeabi_dmul
    rred.o(i.__ieee754_rem_pio2) refers to dfixi.o(.text) for __aeabi_d2iz
    rred.o(i.__ieee754_rem_pio2) refers to dflti.o(.text) for __aeabi_i2d
    rred.o(i.__ieee754_rem_pio2) refers to dfltui.o(.text) for __aeabi_ui2d
    rred.o(i.__ieee754_rem_pio2) refers to rred.o(.constdata) for .constdata
    rred.o(i.__use_accurate_range_reduction) refers (Special) to iusefp.o(.text) for __I$use$fp
    rred.o(.constdata) refers (Special) to iusefp.o(.text) for __I$use$fp
    sin_i.o(i.__kernel_sin) refers (Special) to iusefp.o(.text) for __I$use$fp
    sin_i.o(i.__kernel_sin) refers to fpclassify.o(i.__ARM_fpclassify) for __ARM_fpclassify
    sin_i.o(i.__kernel_sin) refers to dunder.o(i.__mathlib_dbl_underflow) for __mathlib_dbl_underflow
    sin_i.o(i.__kernel_sin) refers to dmul.o(.text) for __aeabi_dmul
    sin_i.o(i.__kernel_sin) refers to poly.o(i.__kernel_poly) for __kernel_poly
    sin_i.o(i.__kernel_sin) refers to dadd.o(.text) for __aeabi_dsub
    sin_i.o(i.__kernel_sin) refers to sin_i.o(.constdata) for .constdata
    sin_i.o(.constdata) refers (Special) to iusefp.o(.text) for __I$use$fp
    sin_i_x.o(i.____kernel_sin$lsc) refers (Special) to iusefp.o(.text) for __I$use$fp
    sin_i_x.o(i.____kernel_sin$lsc) refers to dmul.o(.text) for __aeabi_dmul
    sin_i_x.o(i.____kernel_sin$lsc) refers to poly.o(i.__kernel_poly) for __kernel_poly
    sin_i_x.o(i.____kernel_sin$lsc) refers to dadd.o(.text) for __aeabi_dsub
    sin_i_x.o(i.____kernel_sin$lsc) refers to sin_i_x.o(.constdata) for .constdata
    sin_i_x.o(.constdata) refers (Special) to iusefp.o(.text) for __I$use$fp
    entry2.o(.ARM.Collect$$$$00000001) refers to entry2.o(.ARM.Collect$$$$00002712) for __lit__00000000
    entry2.o(.ARM.Collect$$$$00002712) refers to startup_gd32f450.o(STACK) for __initial_sp
    entry2.o(__vectab_stack_and_reset_area) refers to startup_gd32f450.o(STACK) for __initial_sp
    entry2.o(__vectab_stack_and_reset_area) refers to entry.o(.ARM.Collect$$$$00000000) for __main
    entry5.o(.ARM.Collect$$$$00000004) refers to init.o(.text) for __scatterload
    entry9a.o(.ARM.Collect$$$$0000000B) refers to main.o(i.main) for main
    entry9b.o(.ARM.Collect$$$$0000000C) refers to main.o(i.main) for main
    uldiv.o(.text) refers to llushr.o(.text) for __aeabi_llsr
    uldiv.o(.text) refers to llshl.o(.text) for __aeabi_llsl
    errno.o(i.__aeabi_errno_addr) refers to errno.o(.data) for .data
    errno.o(i.__read_errno) refers to errno.o(.data) for .data
    errno.o(i.__set_errno) refers to errno.o(.data) for .data
    depilogue.o(.text) refers to llshl.o(.text) for __aeabi_llsl
    depilogue.o(.text) refers to llushr.o(.text) for __aeabi_llsr
    dfixul.o(.text) refers to llushr.o(.text) for __aeabi_llsr
    dfixul.o(.text) refers to llshl.o(.text) for __aeabi_llsl
    fabs.o(i.__hardfp_fabs) refers (Special) to iusefp.o(.text) for __I$use$fp
    fabs.o(i.__softfp_fabs) refers (Special) to iusefp.o(.text) for __I$use$fp
    fabs.o(i.fabs) refers (Special) to iusefp.o(.text) for __I$use$fp
    fpclassify.o(i.__ARM_fpclassify) refers (Special) to iusefp.o(.text) for __I$use$fp
    poly.o(i.__kernel_poly) refers (Special) to iusefp.o(.text) for __I$use$fp
    poly.o(i.__kernel_poly) refers to dmul.o(.text) for __aeabi_dmul
    poly.o(i.__kernel_poly) refers to dadd.o(.text) for __aeabi_dadd
    init.o(.text) refers to entry5.o(.ARM.Collect$$$$00000004) for __main_after_scatterload


==============================================================================

Removing Unused input sections from the image.

    Removing gd32f4xx_it.o(.rev16_text), (4 bytes).
    Removing gd32f4xx_it.o(.revsh_text), (4 bytes).
    Removing main.o(.rev16_text), (4 bytes).
    Removing main.o(.revsh_text), (4 bytes).
    Removing main.o(i.Error_Handler), (6 bytes).
    Removing main.o(i.SystemClock_Config), (2 bytes).
    Removing main.o(.bss), (20 bytes).
    Removing system_gd32f4xx.o(.rev16_text), (4 bytes).
    Removing system_gd32f4xx.o(.revsh_text), (4 bytes).
    Removing system_gd32f4xx.o(i.SystemCoreClockUpdate), (272 bytes).
    Removing gd32f4xx_rtc.o(.rev16_text), (4 bytes).
    Removing gd32f4xx_rtc.o(.revsh_text), (4 bytes).
    Removing gd32f4xx_rtc.o(i.rtc_alarm_config), (100 bytes).
    Removing gd32f4xx_rtc.o(i.rtc_alarm_disable), (128 bytes).
    Removing gd32f4xx_rtc.o(i.rtc_alarm_enable), (60 bytes).
    Removing gd32f4xx_rtc.o(i.rtc_alarm_get), (68 bytes).
    Removing gd32f4xx_rtc.o(i.rtc_alarm_output_config), (84 bytes).
    Removing gd32f4xx_rtc.o(i.rtc_alarm_subsecond_config), (52 bytes).
    Removing gd32f4xx_rtc.o(i.rtc_alarm_subsecond_get), (32 bytes).
    Removing gd32f4xx_rtc.o(i.rtc_bypass_shadow_disable), (40 bytes).
    Removing gd32f4xx_rtc.o(i.rtc_bypass_shadow_enable), (40 bytes).
    Removing gd32f4xx_rtc.o(i.rtc_calibration_output_config), (48 bytes).
    Removing gd32f4xx_rtc.o(i.rtc_coarse_calibration_config), (116 bytes).
    Removing gd32f4xx_rtc.o(i.rtc_coarse_calibration_disable), (56 bytes).
    Removing gd32f4xx_rtc.o(i.rtc_coarse_calibration_enable), (56 bytes).
    Removing gd32f4xx_rtc.o(i.rtc_current_time_get), (100 bytes).
    Removing gd32f4xx_rtc.o(i.rtc_deinit), (204 bytes).
    Removing gd32f4xx_rtc.o(i.rtc_flag_clear), (16 bytes).
    Removing gd32f4xx_rtc.o(i.rtc_flag_get), (20 bytes).
    Removing gd32f4xx_rtc.o(i.rtc_hour_adjust), (36 bytes).
    Removing gd32f4xx_rtc.o(i.rtc_init), (196 bytes).
    Removing gd32f4xx_rtc.o(i.rtc_init_mode_enter), (72 bytes).
    Removing gd32f4xx_rtc.o(i.rtc_init_mode_exit), (20 bytes).
    Removing gd32f4xx_rtc.o(i.rtc_interrupt_disable), (60 bytes).
    Removing gd32f4xx_rtc.o(i.rtc_interrupt_enable), (60 bytes).
    Removing gd32f4xx_rtc.o(i.rtc_refclock_detection_disable), (56 bytes).
    Removing gd32f4xx_rtc.o(i.rtc_refclock_detection_enable), (56 bytes).
    Removing gd32f4xx_rtc.o(i.rtc_register_sync_wait), (96 bytes).
    Removing gd32f4xx_rtc.o(i.rtc_second_adjust), (108 bytes).
    Removing gd32f4xx_rtc.o(i.rtc_smooth_calibration_config), (80 bytes).
    Removing gd32f4xx_rtc.o(i.rtc_subsecond_get), (20 bytes).
    Removing gd32f4xx_rtc.o(i.rtc_tamper0_pin_map), (28 bytes).
    Removing gd32f4xx_rtc.o(i.rtc_tamper_disable), (16 bytes).
    Removing gd32f4xx_rtc.o(i.rtc_tamper_enable), (200 bytes).
    Removing gd32f4xx_rtc.o(i.rtc_timestamp_disable), (40 bytes).
    Removing gd32f4xx_rtc.o(i.rtc_timestamp_enable), (48 bytes).
    Removing gd32f4xx_rtc.o(i.rtc_timestamp_get), (60 bytes).
    Removing gd32f4xx_rtc.o(i.rtc_timestamp_pin_map), (28 bytes).
    Removing gd32f4xx_rtc.o(i.rtc_timestamp_subsecond_get), (12 bytes).
    Removing gd32f4xx_rtc.o(i.rtc_wakeup_clock_set), (92 bytes).
    Removing gd32f4xx_rtc.o(i.rtc_wakeup_disable), (84 bytes).
    Removing gd32f4xx_rtc.o(i.rtc_wakeup_enable), (40 bytes).
    Removing gd32f4xx_rtc.o(i.rtc_wakeup_timer_get), (12 bytes).
    Removing gd32f4xx_rtc.o(i.rtc_wakeup_timer_set), (76 bytes).
    Removing gd32f4xx_dbg.o(.rev16_text), (4 bytes).
    Removing gd32f4xx_dbg.o(.revsh_text), (4 bytes).
    Removing gd32f4xx_dbg.o(i.dbg_deinit), (16 bytes).
    Removing gd32f4xx_dbg.o(i.dbg_id_get), (12 bytes).
    Removing gd32f4xx_dbg.o(i.dbg_low_power_disable), (16 bytes).
    Removing gd32f4xx_dbg.o(i.dbg_low_power_enable), (16 bytes).
    Removing gd32f4xx_dbg.o(i.dbg_periph_disable), (32 bytes).
    Removing gd32f4xx_dbg.o(i.dbg_periph_enable), (32 bytes).
    Removing gd32f4xx_dbg.o(i.dbg_trace_pin_disable), (20 bytes).
    Removing gd32f4xx_dbg.o(i.dbg_trace_pin_enable), (20 bytes).
    Removing gd32f4xx_dbg.o(i.dbg_trace_pin_mode_set), (28 bytes).
    Removing gd32f4xx_dci.o(.rev16_text), (4 bytes).
    Removing gd32f4xx_dci.o(.revsh_text), (4 bytes).
    Removing gd32f4xx_dci.o(i.dci_capture_disable), (20 bytes).
    Removing gd32f4xx_dci.o(i.dci_capture_enable), (20 bytes).
    Removing gd32f4xx_dci.o(i.dci_crop_window_config), (24 bytes).
    Removing gd32f4xx_dci.o(i.dci_crop_window_disable), (20 bytes).
    Removing gd32f4xx_dci.o(i.dci_crop_window_enable), (20 bytes).
    Removing gd32f4xx_dci.o(i.dci_data_read), (12 bytes).
    Removing gd32f4xx_dci.o(i.dci_deinit), (20 bytes).
    Removing gd32f4xx_dci.o(i.dci_disable), (20 bytes).
    Removing gd32f4xx_dci.o(i.dci_embedded_sync_disable), (20 bytes).
    Removing gd32f4xx_dci.o(i.dci_embedded_sync_enable), (20 bytes).
    Removing gd32f4xx_dci.o(i.dci_enable), (20 bytes).
    Removing gd32f4xx_dci.o(i.dci_flag_get), (36 bytes).
    Removing gd32f4xx_dci.o(i.dci_init), (52 bytes).
    Removing gd32f4xx_dci.o(i.dci_interrupt_disable), (16 bytes).
    Removing gd32f4xx_dci.o(i.dci_interrupt_enable), (16 bytes).
    Removing gd32f4xx_dci.o(i.dci_interrupt_flag_clear), (16 bytes).
    Removing gd32f4xx_dci.o(i.dci_interrupt_flag_get), (24 bytes).
    Removing gd32f4xx_dci.o(i.dci_jpeg_disable), (20 bytes).
    Removing gd32f4xx_dci.o(i.dci_jpeg_enable), (20 bytes).
    Removing gd32f4xx_dci.o(i.dci_sync_codes_config), (24 bytes).
    Removing gd32f4xx_dci.o(i.dci_sync_codes_unmask_config), (24 bytes).
    Removing gd32f4xx_gpio.o(.rev16_text), (4 bytes).
    Removing gd32f4xx_gpio.o(.revsh_text), (4 bytes).
    Removing gd32f4xx_gpio.o(i.gpio_bit_toggle), (4 bytes).
    Removing gd32f4xx_gpio.o(i.gpio_deinit), (206 bytes).
    Removing gd32f4xx_gpio.o(i.gpio_input_port_get), (8 bytes).
    Removing gd32f4xx_gpio.o(i.gpio_output_bit_get), (16 bytes).
    Removing gd32f4xx_gpio.o(i.gpio_output_port_get), (8 bytes).
    Removing gd32f4xx_gpio.o(i.gpio_pin_lock), (18 bytes).
    Removing gd32f4xx_gpio.o(i.gpio_port_toggle), (8 bytes).
    Removing gd32f4xx_gpio.o(i.gpio_port_write), (4 bytes).
    Removing gd32f4xx_dma.o(.rev16_text), (4 bytes).
    Removing gd32f4xx_dma.o(.revsh_text), (4 bytes).
    Removing gd32f4xx_dma.o(i.dma_channel_disable), (32 bytes).
    Removing gd32f4xx_dma.o(i.dma_circulation_enable), (32 bytes).
    Removing gd32f4xx_dma.o(i.dma_fifo_status_get), (20 bytes).
    Removing gd32f4xx_dma.o(i.dma_flag_clear), (62 bytes).
    Removing gd32f4xx_dma.o(i.dma_flag_get), (76 bytes).
    Removing gd32f4xx_dma.o(i.dma_flow_controller_config), (64 bytes).
    Removing gd32f4xx_dma.o(i.dma_interrupt_disable), (62 bytes).
    Removing gd32f4xx_dma.o(i.dma_memory_address_config), (32 bytes).
    Removing gd32f4xx_dma.o(i.dma_memory_address_generation_config), (64 bytes).
    Removing gd32f4xx_dma.o(i.dma_memory_burst_beats_config), (36 bytes).
    Removing gd32f4xx_dma.o(i.dma_memory_width_config), (36 bytes).
    Removing gd32f4xx_dma.o(i.dma_multi_data_mode_init), (356 bytes).
    Removing gd32f4xx_dma.o(i.dma_multi_data_para_struct_init), (40 bytes).
    Removing gd32f4xx_dma.o(i.dma_periph_address_config), (16 bytes).
    Removing gd32f4xx_dma.o(i.dma_periph_burst_beats_config), (36 bytes).
    Removing gd32f4xx_dma.o(i.dma_periph_width_config), (36 bytes).
    Removing gd32f4xx_dma.o(i.dma_peripheral_address_generation_config), (126 bytes).
    Removing gd32f4xx_dma.o(i.dma_priority_config), (36 bytes).
    Removing gd32f4xx_dma.o(i.dma_single_data_para_struct_init), (34 bytes).
    Removing gd32f4xx_dma.o(i.dma_switch_buffer_mode_config), (76 bytes).
    Removing gd32f4xx_dma.o(i.dma_switch_buffer_mode_enable), (66 bytes).
    Removing gd32f4xx_dma.o(i.dma_transfer_direction_config), (36 bytes).
    Removing gd32f4xx_dma.o(i.dma_transfer_number_config), (16 bytes).
    Removing gd32f4xx_dma.o(i.dma_transfer_number_get), (16 bytes).
    Removing gd32f4xx_dma.o(i.dma_using_memory_get), (28 bytes).
    Removing gd32f4xx_exti.o(.rev16_text), (4 bytes).
    Removing gd32f4xx_exti.o(.revsh_text), (4 bytes).
    Removing gd32f4xx_exti.o(i.exti_deinit), (28 bytes).
    Removing gd32f4xx_exti.o(i.exti_event_disable), (16 bytes).
    Removing gd32f4xx_exti.o(i.exti_event_enable), (16 bytes).
    Removing gd32f4xx_exti.o(i.exti_flag_clear), (12 bytes).
    Removing gd32f4xx_exti.o(i.exti_flag_get), (24 bytes).
    Removing gd32f4xx_exti.o(i.exti_interrupt_disable), (16 bytes).
    Removing gd32f4xx_exti.o(i.exti_interrupt_enable), (16 bytes).
    Removing gd32f4xx_exti.o(i.exti_software_interrupt_disable), (16 bytes).
    Removing gd32f4xx_exti.o(i.exti_software_interrupt_enable), (16 bytes).
    Removing gd32f4xx_rcu.o(.rev16_text), (4 bytes).
    Removing gd32f4xx_rcu.o(.revsh_text), (4 bytes).
    Removing gd32f4xx_rcu.o(i.rcu_ahb_clock_config), (24 bytes).
    Removing gd32f4xx_rcu.o(i.rcu_all_reset_flag_clear), (20 bytes).
    Removing gd32f4xx_rcu.o(i.rcu_apb1_clock_config), (24 bytes).
    Removing gd32f4xx_rcu.o(i.rcu_apb2_clock_config), (24 bytes).
    Removing gd32f4xx_rcu.o(i.rcu_bkp_reset_disable), (20 bytes).
    Removing gd32f4xx_rcu.o(i.rcu_bkp_reset_enable), (20 bytes).
    Removing gd32f4xx_rcu.o(i.rcu_ck48m_clock_config), (24 bytes).
    Removing gd32f4xx_rcu.o(i.rcu_ckout0_config), (28 bytes).
    Removing gd32f4xx_rcu.o(i.rcu_ckout1_config), (28 bytes).
    Removing gd32f4xx_rcu.o(i.rcu_deepsleep_voltage_set), (16 bytes).
    Removing gd32f4xx_rcu.o(i.rcu_deinit), (124 bytes).
    Removing gd32f4xx_rcu.o(i.rcu_flag_get), (36 bytes).
    Removing gd32f4xx_rcu.o(i.rcu_hxtal_clock_monitor_disable), (20 bytes).
    Removing gd32f4xx_rcu.o(i.rcu_hxtal_clock_monitor_enable), (20 bytes).
    Removing gd32f4xx_rcu.o(i.rcu_i2s_clock_config), (24 bytes).
    Removing gd32f4xx_rcu.o(i.rcu_interrupt_disable), (36 bytes).
    Removing gd32f4xx_rcu.o(i.rcu_interrupt_enable), (36 bytes).
    Removing gd32f4xx_rcu.o(i.rcu_interrupt_flag_clear), (36 bytes).
    Removing gd32f4xx_rcu.o(i.rcu_interrupt_flag_get), (36 bytes).
    Removing gd32f4xx_rcu.o(i.rcu_irc16m_adjust_value_set), (28 bytes).
    Removing gd32f4xx_rcu.o(i.rcu_lxtal_drive_capability_config), (24 bytes).
    Removing gd32f4xx_rcu.o(i.rcu_osci_bypass_mode_disable), (116 bytes).
    Removing gd32f4xx_rcu.o(i.rcu_osci_bypass_mode_enable), (116 bytes).
    Removing gd32f4xx_rcu.o(i.rcu_osci_off), (36 bytes).
    Removing gd32f4xx_rcu.o(i.rcu_osci_on), (36 bytes).
    Removing gd32f4xx_rcu.o(i.rcu_osci_stab_wait), (348 bytes).
    Removing gd32f4xx_rcu.o(i.rcu_periph_clock_disable), (36 bytes).
    Removing gd32f4xx_rcu.o(i.rcu_periph_clock_sleep_disable), (36 bytes).
    Removing gd32f4xx_rcu.o(i.rcu_periph_clock_sleep_enable), (36 bytes).
    Removing gd32f4xx_rcu.o(i.rcu_pll48m_clock_config), (24 bytes).
    Removing gd32f4xx_rcu.o(i.rcu_pll_config), (132 bytes).
    Removing gd32f4xx_rcu.o(i.rcu_plli2s_config), (44 bytes).
    Removing gd32f4xx_rcu.o(i.rcu_pllsai_config), (72 bytes).
    Removing gd32f4xx_rcu.o(i.rcu_rtc_clock_config), (24 bytes).
    Removing gd32f4xx_rcu.o(i.rcu_rtc_div_config), (24 bytes).
    Removing gd32f4xx_rcu.o(i.rcu_spread_spectrum_config), (32 bytes).
    Removing gd32f4xx_rcu.o(i.rcu_spread_spectrum_disable), (20 bytes).
    Removing gd32f4xx_rcu.o(i.rcu_spread_spectrum_enable), (20 bytes).
    Removing gd32f4xx_rcu.o(i.rcu_system_clock_source_config), (24 bytes).
    Removing gd32f4xx_rcu.o(i.rcu_system_clock_source_get), (16 bytes).
    Removing gd32f4xx_rcu.o(i.rcu_tli_clock_div_config), (24 bytes).
    Removing gd32f4xx_rcu.o(i.rcu_voltage_key_unlock), (16 bytes).
    Removing gd32f4xx_trng.o(.rev16_text), (4 bytes).
    Removing gd32f4xx_trng.o(.revsh_text), (4 bytes).
    Removing gd32f4xx_trng.o(i.trng_deinit), (20 bytes).
    Removing gd32f4xx_trng.o(i.trng_disable), (20 bytes).
    Removing gd32f4xx_trng.o(i.trng_enable), (20 bytes).
    Removing gd32f4xx_trng.o(i.trng_flag_get), (24 bytes).
    Removing gd32f4xx_trng.o(i.trng_get_true_random_data), (12 bytes).
    Removing gd32f4xx_trng.o(i.trng_interrupt_disable), (20 bytes).
    Removing gd32f4xx_trng.o(i.trng_interrupt_enable), (20 bytes).
    Removing gd32f4xx_trng.o(i.trng_interrupt_flag_clear), (16 bytes).
    Removing gd32f4xx_trng.o(i.trng_interrupt_flag_get), (24 bytes).
    Removing gd32f4xx_adc.o(.rev16_text), (4 bytes).
    Removing gd32f4xx_adc.o(.revsh_text), (4 bytes).
    Removing gd32f4xx_adc.o(i.adc_disable), (10 bytes).
    Removing gd32f4xx_adc.o(i.adc_discontinuous_mode_config), (82 bytes).
    Removing gd32f4xx_adc.o(i.adc_dma_mode_disable), (10 bytes).
    Removing gd32f4xx_adc.o(i.adc_dma_mode_enable), (10 bytes).
    Removing gd32f4xx_adc.o(i.adc_dma_request_after_last_disable), (10 bytes).
    Removing gd32f4xx_adc.o(i.adc_dma_request_after_last_enable), (10 bytes).
    Removing gd32f4xx_adc.o(i.adc_end_of_conversion_config), (34 bytes).
    Removing gd32f4xx_adc.o(i.adc_inserted_channel_offset_config), (36 bytes).
    Removing gd32f4xx_adc.o(i.adc_inserted_software_startconv_flag_get), (16 bytes).
    Removing gd32f4xx_adc.o(i.adc_interrupt_disable), (66 bytes).
    Removing gd32f4xx_adc.o(i.adc_interrupt_enable), (66 bytes).
    Removing gd32f4xx_adc.o(i.adc_interrupt_flag_clear), (8 bytes).
    Removing gd32f4xx_adc.o(i.adc_interrupt_flag_get), (112 bytes).
    Removing gd32f4xx_adc.o(i.adc_oversample_mode_config), (58 bytes).
    Removing gd32f4xx_adc.o(i.adc_oversample_mode_disable), (14 bytes).
    Removing gd32f4xx_adc.o(i.adc_oversample_mode_enable), (14 bytes).
    Removing gd32f4xx_adc.o(i.adc_regular_software_startconv_flag_get), (16 bytes).
    Removing gd32f4xx_adc.o(i.adc_resolution_config), (16 bytes).
    Removing gd32f4xx_adc.o(i.adc_sync_delay_config), (36 bytes).
    Removing gd32f4xx_adc.o(i.adc_sync_dma_config), (36 bytes).
    Removing gd32f4xx_adc.o(i.adc_sync_dma_request_after_last_disable), (24 bytes).
    Removing gd32f4xx_adc.o(i.adc_sync_dma_request_after_last_enable), (24 bytes).
    Removing gd32f4xx_adc.o(i.adc_sync_regular_data_read), (12 bytes).
    Removing gd32f4xx_adc.o(i.adc_watchdog_disable), (50 bytes).
    Removing gd32f4xx_adc.o(i.adc_watchdog_group_channel_enable), (64 bytes).
    Removing gd32f4xx_adc.o(i.adc_watchdog_single_channel_disable), (10 bytes).
    Removing gd32f4xx_adc.o(i.adc_watchdog_single_channel_enable), (24 bytes).
    Removing gd32f4xx_adc.o(i.adc_watchdog_threshold_config), (14 bytes).
    Removing gd32f4xx_can.o(.rev16_text), (4 bytes).
    Removing gd32f4xx_can.o(.revsh_text), (4 bytes).
    Removing gd32f4xx_can.o(i.can1_filter_start_bank), (56 bytes).
    Removing gd32f4xx_can.o(i.can_debug_freeze_disable), (44 bytes).
    Removing gd32f4xx_can.o(i.can_debug_freeze_enable), (44 bytes).
    Removing gd32f4xx_can.o(i.can_deinit), (52 bytes).
    Removing gd32f4xx_can.o(i.can_error_get), (12 bytes).
    Removing gd32f4xx_can.o(i.can_fifo_release), (32 bytes).
    Removing gd32f4xx_can.o(i.can_filter_init), (272 bytes).
    Removing gd32f4xx_can.o(i.can_flag_clear), (16 bytes).
    Removing gd32f4xx_can.o(i.can_flag_get), (30 bytes).
    Removing gd32f4xx_can.o(i.can_init), (290 bytes).
    Removing gd32f4xx_can.o(i.can_interrupt_disable), (8 bytes).
    Removing gd32f4xx_can.o(i.can_interrupt_enable), (8 bytes).
    Removing gd32f4xx_can.o(i.can_interrupt_flag_clear), (16 bytes).
    Removing gd32f4xx_can.o(i.can_interrupt_flag_get), (116 bytes).
    Removing gd32f4xx_can.o(i.can_message_receive), (228 bytes).
    Removing gd32f4xx_can.o(i.can_message_transmit), (336 bytes).
    Removing gd32f4xx_can.o(i.can_receive_error_number_get), (8 bytes).
    Removing gd32f4xx_can.o(i.can_receive_message_length_get), (26 bytes).
    Removing gd32f4xx_can.o(i.can_struct_para_init), (158 bytes).
    Removing gd32f4xx_can.o(i.can_time_trigger_mode_disable), (48 bytes).
    Removing gd32f4xx_can.o(i.can_time_trigger_mode_enable), (48 bytes).
    Removing gd32f4xx_can.o(i.can_transmission_stop), (80 bytes).
    Removing gd32f4xx_can.o(i.can_transmit_error_number_get), (10 bytes).
    Removing gd32f4xx_can.o(i.can_transmit_states), (124 bytes).
    Removing gd32f4xx_can.o(i.can_wakeup), (48 bytes).
    Removing gd32f4xx_can.o(i.can_working_mode_set), (168 bytes).
    Removing gd32f4xx_crc.o(.rev16_text), (4 bytes).
    Removing gd32f4xx_crc.o(.revsh_text), (4 bytes).
    Removing gd32f4xx_crc.o(i.crc_block_data_calculate), (36 bytes).
    Removing gd32f4xx_crc.o(i.crc_data_register_read), (12 bytes).
    Removing gd32f4xx_crc.o(i.crc_data_register_reset), (20 bytes).
    Removing gd32f4xx_crc.o(i.crc_deinit), (24 bytes).
    Removing gd32f4xx_crc.o(i.crc_free_data_register_read), (12 bytes).
    Removing gd32f4xx_crc.o(i.crc_free_data_register_write), (12 bytes).
    Removing gd32f4xx_crc.o(i.crc_single_data_calculate), (16 bytes).
    Removing gd32f4xx_ctc.o(.rev16_text), (4 bytes).
    Removing gd32f4xx_ctc.o(.revsh_text), (4 bytes).
    Removing gd32f4xx_ctc.o(i.ctc_clock_limit_value_config), (28 bytes).
    Removing gd32f4xx_ctc.o(i.ctc_counter_capture_value_read), (16 bytes).
    Removing gd32f4xx_ctc.o(i.ctc_counter_direction_read), (24 bytes).
    Removing gd32f4xx_ctc.o(i.ctc_counter_disable), (20 bytes).
    Removing gd32f4xx_ctc.o(i.ctc_counter_enable), (20 bytes).
    Removing gd32f4xx_ctc.o(i.ctc_counter_reload_value_config), (28 bytes).
    Removing gd32f4xx_ctc.o(i.ctc_counter_reload_value_read), (16 bytes).
    Removing gd32f4xx_ctc.o(i.ctc_deinit), (20 bytes).
    Removing gd32f4xx_ctc.o(i.ctc_flag_clear), (36 bytes).
    Removing gd32f4xx_ctc.o(i.ctc_flag_get), (24 bytes).
    Removing gd32f4xx_ctc.o(i.ctc_hardware_trim_mode_config), (28 bytes).
    Removing gd32f4xx_ctc.o(i.ctc_interrupt_disable), (16 bytes).
    Removing gd32f4xx_ctc.o(i.ctc_interrupt_enable), (16 bytes).
    Removing gd32f4xx_ctc.o(i.ctc_interrupt_flag_clear), (36 bytes).
    Removing gd32f4xx_ctc.o(i.ctc_interrupt_flag_get), (56 bytes).
    Removing gd32f4xx_ctc.o(i.ctc_irc48m_trim_value_config), (28 bytes).
    Removing gd32f4xx_ctc.o(i.ctc_irc48m_trim_value_read), (16 bytes).
    Removing gd32f4xx_ctc.o(i.ctc_refsource_polarity_config), (28 bytes).
    Removing gd32f4xx_ctc.o(i.ctc_refsource_prescaler_config), (28 bytes).
    Removing gd32f4xx_ctc.o(i.ctc_refsource_signal_select), (28 bytes).
    Removing gd32f4xx_ctc.o(i.ctc_software_refsource_pulse_generate), (20 bytes).
    Removing gd32f4xx_ctc.o(i.ctc_usbsof_signal_select), (28 bytes).
    Removing gd32f4xx_dac.o(.rev16_text), (4 bytes).
    Removing gd32f4xx_dac.o(.revsh_text), (4 bytes).
    Removing gd32f4xx_dac.o(i.dac_concurrent_data_set), (64 bytes).
    Removing gd32f4xx_dac.o(i.dac_concurrent_disable), (24 bytes).
    Removing gd32f4xx_dac.o(i.dac_concurrent_enable), (24 bytes).
    Removing gd32f4xx_dac.o(i.dac_concurrent_interrupt_disable), (24 bytes).
    Removing gd32f4xx_dac.o(i.dac_concurrent_interrupt_enable), (24 bytes).
    Removing gd32f4xx_dac.o(i.dac_concurrent_output_buffer_disable), (24 bytes).
    Removing gd32f4xx_dac.o(i.dac_concurrent_output_buffer_enable), (24 bytes).
    Removing gd32f4xx_dac.o(i.dac_concurrent_software_trigger_disable), (20 bytes).
    Removing gd32f4xx_dac.o(i.dac_concurrent_software_trigger_enable), (20 bytes).
    Removing gd32f4xx_dac.o(i.dac_data_set), (88 bytes).
    Removing gd32f4xx_dac.o(i.dac_deinit), (20 bytes).
    Removing gd32f4xx_dac.o(i.dac_disable), (36 bytes).
    Removing gd32f4xx_dac.o(i.dac_dma_disable), (36 bytes).
    Removing gd32f4xx_dac.o(i.dac_dma_enable), (36 bytes).
    Removing gd32f4xx_dac.o(i.dac_enable), (36 bytes).
    Removing gd32f4xx_dac.o(i.dac_flag_clear), (36 bytes).
    Removing gd32f4xx_dac.o(i.dac_flag_get), (40 bytes).
    Removing gd32f4xx_dac.o(i.dac_interrupt_disable), (36 bytes).
    Removing gd32f4xx_dac.o(i.dac_interrupt_enable), (36 bytes).
    Removing gd32f4xx_dac.o(i.dac_interrupt_flag_clear), (36 bytes).
    Removing gd32f4xx_dac.o(i.dac_interrupt_flag_get), (68 bytes).
    Removing gd32f4xx_dac.o(i.dac_lfsr_noise_config), (52 bytes).
    Removing gd32f4xx_dac.o(i.dac_output_buffer_disable), (36 bytes).
    Removing gd32f4xx_dac.o(i.dac_output_buffer_enable), (36 bytes).
    Removing gd32f4xx_dac.o(i.dac_output_value_get), (28 bytes).
    Removing gd32f4xx_dac.o(i.dac_software_trigger_disable), (36 bytes).
    Removing gd32f4xx_dac.o(i.dac_software_trigger_enable), (36 bytes).
    Removing gd32f4xx_dac.o(i.dac_triangle_noise_config), (52 bytes).
    Removing gd32f4xx_dac.o(i.dac_trigger_disable), (36 bytes).
    Removing gd32f4xx_dac.o(i.dac_trigger_enable), (36 bytes).
    Removing gd32f4xx_dac.o(i.dac_trigger_source_config), (52 bytes).
    Removing gd32f4xx_dac.o(i.dac_wave_bit_width_config), (52 bytes).
    Removing gd32f4xx_dac.o(i.dac_wave_mode_config), (52 bytes).
    Removing gd32f4xx_enet.o(.rev16_text), (4 bytes).
    Removing gd32f4xx_enet.o(.revsh_text), (4 bytes).
    Removing gd32f4xx_enet.o(i.enet_address_filter_config), (32 bytes).
    Removing gd32f4xx_enet.o(i.enet_address_filter_disable), (24 bytes).
    Removing gd32f4xx_enet.o(i.enet_address_filter_enable), (24 bytes).
    Removing gd32f4xx_enet.o(i.enet_current_desc_address_get), (16 bytes).
    Removing gd32f4xx_enet.o(i.enet_debug_status_get), (108 bytes).
    Removing gd32f4xx_enet.o(i.enet_default_init), (104 bytes).
    Removing gd32f4xx_enet.o(i.enet_deinit), (24 bytes).
    Removing gd32f4xx_enet.o(i.enet_delay), (24 bytes).
    Removing gd32f4xx_enet.o(i.enet_desc_flag_clear), (8 bytes).
    Removing gd32f4xx_enet.o(i.enet_desc_flag_get), (14 bytes).
    Removing gd32f4xx_enet.o(i.enet_desc_flag_set), (8 bytes).
    Removing gd32f4xx_enet.o(i.enet_desc_information_get), (100 bytes).
    Removing gd32f4xx_enet.o(i.enet_desc_select_normal_mode), (20 bytes).
    Removing gd32f4xx_enet.o(i.enet_descriptors_chain_init), (200 bytes).
    Removing gd32f4xx_enet.o(i.enet_descriptors_ring_init), (236 bytes).
    Removing gd32f4xx_enet.o(i.enet_disable), (12 bytes).
    Removing gd32f4xx_enet.o(i.enet_dma_feature_disable), (16 bytes).
    Removing gd32f4xx_enet.o(i.enet_dma_feature_enable), (16 bytes).
    Removing gd32f4xx_enet.o(i.enet_dmaprocess_resume), (28 bytes).
    Removing gd32f4xx_enet.o(i.enet_dmaprocess_state_get), (16 bytes).
    Removing gd32f4xx_enet.o(i.enet_enable), (12 bytes).
    Removing gd32f4xx_enet.o(i.enet_flag_clear), (24 bytes).
    Removing gd32f4xx_enet.o(i.enet_flag_get), (36 bytes).
    Removing gd32f4xx_enet.o(i.enet_fliter_feature_disable), (16 bytes).
    Removing gd32f4xx_enet.o(i.enet_fliter_feature_enable), (16 bytes).
    Removing gd32f4xx_enet.o(i.enet_flowcontrol_feature_disable), (40 bytes).
    Removing gd32f4xx_enet.o(i.enet_flowcontrol_feature_enable), (40 bytes).
    Removing gd32f4xx_enet.o(i.enet_flowcontrol_threshold_config), (16 bytes).
    Removing gd32f4xx_enet.o(i.enet_forward_feature_disable), (48 bytes).
    Removing gd32f4xx_enet.o(i.enet_forward_feature_enable), (48 bytes).
    Removing gd32f4xx_enet.o(i.enet_frame_receive), (248 bytes).
    Removing gd32f4xx_enet.o(i.enet_frame_transmit), (204 bytes).
    Removing gd32f4xx_enet.o(i.enet_init), (868 bytes).
    Removing gd32f4xx_enet.o(i.enet_initpara_config), (356 bytes).
    Removing gd32f4xx_enet.o(i.enet_initpara_reset), (40 bytes).
    Removing gd32f4xx_enet.o(i.enet_interrupt_disable), (72 bytes).
    Removing gd32f4xx_enet.o(i.enet_interrupt_enable), (72 bytes).
    Removing gd32f4xx_enet.o(i.enet_interrupt_flag_clear), (24 bytes).
    Removing gd32f4xx_enet.o(i.enet_interrupt_flag_get), (36 bytes).
    Removing gd32f4xx_enet.o(i.enet_mac_address_get), (60 bytes).
    Removing gd32f4xx_enet.o(i.enet_mac_address_set), (48 bytes).
    Removing gd32f4xx_enet.o(i.enet_missed_frame_counter_get), (24 bytes).
    Removing gd32f4xx_enet.o(i.enet_msc_counters_get), (12 bytes).
    Removing gd32f4xx_enet.o(i.enet_msc_counters_preset_config), (36 bytes).
    Removing gd32f4xx_enet.o(i.enet_msc_counters_reset), (24 bytes).
    Removing gd32f4xx_enet.o(i.enet_msc_feature_disable), (24 bytes).
    Removing gd32f4xx_enet.o(i.enet_msc_feature_enable), (24 bytes).
    Removing gd32f4xx_enet.o(i.enet_pauseframe_config), (44 bytes).
    Removing gd32f4xx_enet.o(i.enet_pauseframe_detect_config), (28 bytes).
    Removing gd32f4xx_enet.o(i.enet_pauseframe_generate), (36 bytes).
    Removing gd32f4xx_enet.o(i.enet_phy_config), (216 bytes).
    Removing gd32f4xx_enet.o(i.enet_phy_write_read), (156 bytes).
    Removing gd32f4xx_enet.o(i.enet_phyloopback_disable), (50 bytes).
    Removing gd32f4xx_enet.o(i.enet_phyloopback_enable), (48 bytes).
    Removing gd32f4xx_enet.o(i.enet_ptp_expected_time_config), (16 bytes).
    Removing gd32f4xx_enet.o(i.enet_ptp_feature_disable), (16 bytes).
    Removing gd32f4xx_enet.o(i.enet_ptp_feature_enable), (16 bytes).
    Removing gd32f4xx_enet.o(i.enet_ptp_normal_descriptors_chain_init), (236 bytes).
    Removing gd32f4xx_enet.o(i.enet_ptp_normal_descriptors_ring_init), (280 bytes).
    Removing gd32f4xx_enet.o(i.enet_ptp_pps_output_frequency_config), (12 bytes).
    Removing gd32f4xx_enet.o(i.enet_ptp_subsecond_increment_config), (12 bytes).
    Removing gd32f4xx_enet.o(i.enet_ptp_system_time_get), (32 bytes).
    Removing gd32f4xx_enet.o(i.enet_ptp_timestamp_addend_config), (12 bytes).
    Removing gd32f4xx_enet.o(i.enet_ptp_timestamp_function_config), (256 bytes).
    Removing gd32f4xx_enet.o(i.enet_ptp_timestamp_update_config), (24 bytes).
    Removing gd32f4xx_enet.o(i.enet_ptpframe_receive_normal_mode), (340 bytes).
    Removing gd32f4xx_enet.o(i.enet_ptpframe_transmit_normal_mode), (444 bytes).
    Removing gd32f4xx_enet.o(i.enet_registers_get), (56 bytes).
    Removing gd32f4xx_enet.o(i.enet_rx_desc_delay_receive_complete_interrupt), (20 bytes).
    Removing gd32f4xx_enet.o(i.enet_rx_desc_immediate_receive_complete_interrupt), (10 bytes).
    Removing gd32f4xx_enet.o(i.enet_rx_disable), (36 bytes).
    Removing gd32f4xx_enet.o(i.enet_rx_enable), (36 bytes).
    Removing gd32f4xx_enet.o(i.enet_rxframe_drop), (172 bytes).
    Removing gd32f4xx_enet.o(i.enet_rxframe_size_get), (152 bytes).
    Removing gd32f4xx_enet.o(i.enet_rxprocess_check_recovery), (48 bytes).
    Removing gd32f4xx_enet.o(i.enet_software_reset), (60 bytes).
    Removing gd32f4xx_enet.o(i.enet_transmit_checksum_config), (16 bytes).
    Removing gd32f4xx_enet.o(i.enet_tx_disable), (40 bytes).
    Removing gd32f4xx_enet.o(i.enet_tx_enable), (40 bytes).
    Removing gd32f4xx_enet.o(i.enet_txfifo_flush), (52 bytes).
    Removing gd32f4xx_enet.o(i.enet_wum_feature_disable), (16 bytes).
    Removing gd32f4xx_enet.o(i.enet_wum_feature_enable), (16 bytes).
    Removing gd32f4xx_enet.o(i.enet_wum_filter_config), (28 bytes).
    Removing gd32f4xx_enet.o(i.enet_wum_filter_register_pointer_reset), (20 bytes).
    Removing gd32f4xx_enet.o(.bss), (15460 bytes).
    Removing gd32f4xx_enet.o(.constdata), (116 bytes).
    Removing gd32f4xx_enet.o(.data), (20 bytes).
    Removing gd32f4xx_exmc.o(.rev16_text), (4 bytes).
    Removing gd32f4xx_exmc.o(.revsh_text), (4 bytes).
    Removing gd32f4xx_exmc.o(i.exmc_ecc_get), (12 bytes).
    Removing gd32f4xx_exmc.o(i.exmc_flag_clear), (52 bytes).
    Removing gd32f4xx_exmc.o(i.exmc_flag_get), (52 bytes).
    Removing gd32f4xx_exmc.o(i.exmc_interrupt_disable), (56 bytes).
    Removing gd32f4xx_exmc.o(i.exmc_interrupt_enable), (56 bytes).
    Removing gd32f4xx_exmc.o(i.exmc_interrupt_flag_clear), (56 bytes).
    Removing gd32f4xx_exmc.o(i.exmc_interrupt_flag_get), (72 bytes).
    Removing gd32f4xx_exmc.o(i.exmc_nand_deinit), (42 bytes).
    Removing gd32f4xx_exmc.o(i.exmc_nand_disable), (22 bytes).
    Removing gd32f4xx_exmc.o(i.exmc_nand_ecc_config), (48 bytes).
    Removing gd32f4xx_exmc.o(i.exmc_nand_enable), (22 bytes).
    Removing gd32f4xx_exmc.o(i.exmc_nand_init), (172 bytes).
    Removing gd32f4xx_exmc.o(i.exmc_nand_struct_para_init), (54 bytes).
    Removing gd32f4xx_exmc.o(i.exmc_norsram_consecutive_clock_config), (42 bytes).
    Removing gd32f4xx_exmc.o(i.exmc_norsram_deinit), (36 bytes).
    Removing gd32f4xx_exmc.o(i.exmc_norsram_disable), (22 bytes).
    Removing gd32f4xx_exmc.o(i.exmc_norsram_enable), (22 bytes).
    Removing gd32f4xx_exmc.o(i.exmc_norsram_init), (228 bytes).
    Removing gd32f4xx_exmc.o(i.exmc_norsram_page_size_config), (40 bytes).
    Removing gd32f4xx_exmc.o(i.exmc_norsram_struct_para_init), (106 bytes).
    Removing gd32f4xx_exmc.o(i.exmc_pccard_deinit), (36 bytes).
    Removing gd32f4xx_exmc.o(i.exmc_pccard_disable), (24 bytes).
    Removing gd32f4xx_exmc.o(i.exmc_pccard_enable), (24 bytes).
    Removing gd32f4xx_exmc.o(i.exmc_pccard_init), (188 bytes).
    Removing gd32f4xx_exmc.o(i.exmc_pccard_struct_para_init), (60 bytes).
    Removing gd32f4xx_exmc.o(i.exmc_sdram_autorefresh_number_set), (32 bytes).
    Removing gd32f4xx_exmc.o(i.exmc_sdram_bankstatus_get), (32 bytes).
    Removing gd32f4xx_exmc.o(i.exmc_sdram_command_config), (28 bytes).
    Removing gd32f4xx_exmc.o(i.exmc_sdram_deinit), (56 bytes).
    Removing gd32f4xx_exmc.o(i.exmc_sdram_init), (280 bytes).
    Removing gd32f4xx_exmc.o(i.exmc_sdram_readsample_config), (40 bytes).
    Removing gd32f4xx_exmc.o(i.exmc_sdram_readsample_enable), (44 bytes).
    Removing gd32f4xx_exmc.o(i.exmc_sdram_refresh_count_set), (36 bytes).
    Removing gd32f4xx_exmc.o(i.exmc_sdram_struct_para_init), (66 bytes).
    Removing gd32f4xx_exmc.o(i.exmc_sdram_write_protection_config), (64 bytes).
    Removing gd32f4xx_exmc.o(i.exmc_sqpipsram_deinit), (44 bytes).
    Removing gd32f4xx_exmc.o(i.exmc_sqpipsram_high_id_get), (12 bytes).
    Removing gd32f4xx_exmc.o(i.exmc_sqpipsram_init), (24 bytes).
    Removing gd32f4xx_exmc.o(i.exmc_sqpipsram_low_id_get), (12 bytes).
    Removing gd32f4xx_exmc.o(i.exmc_sqpipsram_read_command_set), (28 bytes).
    Removing gd32f4xx_exmc.o(i.exmc_sqpipsram_read_id_command_send), (24 bytes).
    Removing gd32f4xx_exmc.o(i.exmc_sqpipsram_send_command_state_get), (48 bytes).
    Removing gd32f4xx_exmc.o(i.exmc_sqpipsram_struct_para_init), (20 bytes).
    Removing gd32f4xx_exmc.o(i.exmc_sqpipsram_write_cmd_send), (24 bytes).
    Removing gd32f4xx_exmc.o(i.exmc_sqpipsram_write_command_set), (28 bytes).
    Removing gd32f4xx_fmc.o(.rev16_text), (4 bytes).
    Removing gd32f4xx_fmc.o(.revsh_text), (4 bytes).
    Removing gd32f4xx_fmc.o(i.fmc_bank0_erase), (68 bytes).
    Removing gd32f4xx_fmc.o(i.fmc_bank1_erase), (68 bytes).
    Removing gd32f4xx_fmc.o(i.fmc_byte_program), (80 bytes).
    Removing gd32f4xx_fmc.o(i.fmc_flag_clear), (12 bytes).
    Removing gd32f4xx_fmc.o(i.fmc_flag_get), (24 bytes).
    Removing gd32f4xx_fmc.o(i.fmc_halfword_program), (84 bytes).
    Removing gd32f4xx_fmc.o(i.fmc_interrupt_disable), (16 bytes).
    Removing gd32f4xx_fmc.o(i.fmc_interrupt_enable), (16 bytes).
    Removing gd32f4xx_fmc.o(i.fmc_lock), (20 bytes).
    Removing gd32f4xx_fmc.o(i.fmc_mass_erase), (72 bytes).
    Removing gd32f4xx_fmc.o(i.fmc_ready_wait), (34 bytes).
    Removing gd32f4xx_fmc.o(i.fmc_sector_erase), (92 bytes).
    Removing gd32f4xx_fmc.o(i.fmc_state_get), (84 bytes).
    Removing gd32f4xx_fmc.o(i.fmc_unlock), (36 bytes).
    Removing gd32f4xx_fmc.o(i.fmc_word_program), (84 bytes).
    Removing gd32f4xx_fmc.o(i.fmc_wscnt_set), (24 bytes).
    Removing gd32f4xx_fmc.o(i.ob_boot_mode_config), (24 bytes).
    Removing gd32f4xx_fmc.o(i.ob_drp0_get), (16 bytes).
    Removing gd32f4xx_fmc.o(i.ob_drp1_get), (16 bytes).
    Removing gd32f4xx_fmc.o(i.ob_drp_disable), (116 bytes).
    Removing gd32f4xx_fmc.o(i.ob_drp_enable), (128 bytes).
    Removing gd32f4xx_fmc.o(i.ob_erase), (76 bytes).
    Removing gd32f4xx_fmc.o(i.ob_lock), (20 bytes).
    Removing gd32f4xx_fmc.o(i.ob_security_protection_config), (40 bytes).
    Removing gd32f4xx_fmc.o(i.ob_spc_get), (28 bytes).
    Removing gd32f4xx_fmc.o(i.ob_start), (36 bytes).
    Removing gd32f4xx_fmc.o(i.ob_unlock), (36 bytes).
    Removing gd32f4xx_fmc.o(i.ob_user_bor_threshold), (24 bytes).
    Removing gd32f4xx_fmc.o(i.ob_user_bor_threshold_get), (16 bytes).
    Removing gd32f4xx_fmc.o(i.ob_user_get), (16 bytes).
    Removing gd32f4xx_fmc.o(i.ob_user_write), (48 bytes).
    Removing gd32f4xx_fmc.o(i.ob_write_protection0_get), (16 bytes).
    Removing gd32f4xx_fmc.o(i.ob_write_protection1_get), (16 bytes).
    Removing gd32f4xx_fmc.o(i.ob_write_protection_disable), (64 bytes).
    Removing gd32f4xx_fmc.o(i.ob_write_protection_enable), (64 bytes).
    Removing gd32f4xx_fwdgt.o(.rev16_text), (4 bytes).
    Removing gd32f4xx_fwdgt.o(.revsh_text), (4 bytes).
    Removing gd32f4xx_fwdgt.o(i.fwdgt_config), (104 bytes).
    Removing gd32f4xx_fwdgt.o(i.fwdgt_counter_reload), (16 bytes).
    Removing gd32f4xx_fwdgt.o(i.fwdgt_enable), (16 bytes).
    Removing gd32f4xx_fwdgt.o(i.fwdgt_flag_get), (24 bytes).
    Removing gd32f4xx_fwdgt.o(i.fwdgt_write_disable), (12 bytes).
    Removing gd32f4xx_fwdgt.o(i.fwdgt_write_enable), (16 bytes).
    Removing gd32f4xx_i2c.o(.rev16_text), (4 bytes).
    Removing gd32f4xx_i2c.o(.revsh_text), (4 bytes).
    Removing gd32f4xx_i2c.o(i.i2c_ack_config), (24 bytes).
    Removing gd32f4xx_i2c.o(i.i2c_ackpos_config), (22 bytes).
    Removing gd32f4xx_i2c.o(i.i2c_analog_noise_filter_disable), (10 bytes).
    Removing gd32f4xx_i2c.o(i.i2c_analog_noise_filter_enable), (10 bytes).
    Removing gd32f4xx_i2c.o(i.i2c_clock_config), (216 bytes).
    Removing gd32f4xx_i2c.o(i.i2c_data_receive), (8 bytes).
    Removing gd32f4xx_i2c.o(i.i2c_data_transmit), (6 bytes).
    Removing gd32f4xx_i2c.o(i.i2c_deinit), (88 bytes).
    Removing gd32f4xx_i2c.o(i.i2c_digital_noise_filter_config), (8 bytes).
    Removing gd32f4xx_i2c.o(i.i2c_disable), (10 bytes).
    Removing gd32f4xx_i2c.o(i.i2c_dma_enable), (16 bytes).
    Removing gd32f4xx_i2c.o(i.i2c_dma_last_transfer_config), (16 bytes).
    Removing gd32f4xx_i2c.o(i.i2c_dualaddr_disable), (10 bytes).
    Removing gd32f4xx_i2c.o(i.i2c_dualaddr_enable), (12 bytes).
    Removing gd32f4xx_i2c.o(i.i2c_enable), (10 bytes).
    Removing gd32f4xx_i2c.o(i.i2c_flag_clear), (40 bytes).
    Removing gd32f4xx_i2c.o(i.i2c_flag_get), (30 bytes).
    Removing gd32f4xx_i2c.o(i.i2c_interrupt_disable), (26 bytes).
    Removing gd32f4xx_i2c.o(i.i2c_interrupt_enable), (26 bytes).
    Removing gd32f4xx_i2c.o(i.i2c_interrupt_flag_clear), (44 bytes).
    Removing gd32f4xx_i2c.o(i.i2c_interrupt_flag_get), (92 bytes).
    Removing gd32f4xx_i2c.o(i.i2c_master_addressing), (20 bytes).
    Removing gd32f4xx_i2c.o(i.i2c_mode_addr_config), (28 bytes).
    Removing gd32f4xx_i2c.o(i.i2c_pec_enable), (16 bytes).
    Removing gd32f4xx_i2c.o(i.i2c_pec_transfer_enable), (16 bytes).
    Removing gd32f4xx_i2c.o(i.i2c_pec_value_get), (10 bytes).
    Removing gd32f4xx_i2c.o(i.i2c_sam_disable), (14 bytes).
    Removing gd32f4xx_i2c.o(i.i2c_sam_enable), (14 bytes).
    Removing gd32f4xx_i2c.o(i.i2c_sam_timeout_disable), (14 bytes).
    Removing gd32f4xx_i2c.o(i.i2c_sam_timeout_enable), (14 bytes).
    Removing gd32f4xx_i2c.o(i.i2c_slave_response_to_gcall_config), (16 bytes).
    Removing gd32f4xx_i2c.o(i.i2c_smbus_arp_enable), (16 bytes).
    Removing gd32f4xx_i2c.o(i.i2c_smbus_issue_alert), (16 bytes).
    Removing gd32f4xx_i2c.o(i.i2c_smbus_type_config), (24 bytes).
    Removing gd32f4xx_i2c.o(i.i2c_software_reset_config), (16 bytes).
    Removing gd32f4xx_i2c.o(i.i2c_start_on_bus), (10 bytes).
    Removing gd32f4xx_i2c.o(i.i2c_stop_on_bus), (10 bytes).
    Removing gd32f4xx_i2c.o(i.i2c_stretch_scl_low_config), (16 bytes).
    Removing gd32f4xx_ipa.o(.rev16_text), (4 bytes).
    Removing gd32f4xx_ipa.o(.revsh_text), (4 bytes).
    Removing gd32f4xx_ipa.o(i.ipa_background_init), (164 bytes).
    Removing gd32f4xx_ipa.o(i.ipa_background_lut_init), (100 bytes).
    Removing gd32f4xx_ipa.o(i.ipa_background_lut_loading_enable), (20 bytes).
    Removing gd32f4xx_ipa.o(i.ipa_background_struct_para_init), (20 bytes).
    Removing gd32f4xx_ipa.o(i.ipa_deinit), (20 bytes).
    Removing gd32f4xx_ipa.o(i.ipa_destination_init), (316 bytes).
    Removing gd32f4xx_ipa.o(i.ipa_destination_struct_para_init), (22 bytes).
    Removing gd32f4xx_ipa.o(i.ipa_flag_clear), (16 bytes).
    Removing gd32f4xx_ipa.o(i.ipa_flag_get), (24 bytes).
    Removing gd32f4xx_ipa.o(i.ipa_foreground_init), (164 bytes).
    Removing gd32f4xx_ipa.o(i.ipa_foreground_lut_init), (100 bytes).
    Removing gd32f4xx_ipa.o(i.ipa_foreground_lut_loading_enable), (20 bytes).
    Removing gd32f4xx_ipa.o(i.ipa_foreground_struct_para_init), (20 bytes).
    Removing gd32f4xx_ipa.o(i.ipa_inter_timer_config), (36 bytes).
    Removing gd32f4xx_ipa.o(i.ipa_interrupt_disable), (16 bytes).
    Removing gd32f4xx_ipa.o(i.ipa_interrupt_enable), (16 bytes).
    Removing gd32f4xx_ipa.o(i.ipa_interrupt_flag_clear), (16 bytes).
    Removing gd32f4xx_ipa.o(i.ipa_interrupt_flag_get), (24 bytes).
    Removing gd32f4xx_ipa.o(i.ipa_interval_clock_num_config), (28 bytes).
    Removing gd32f4xx_ipa.o(i.ipa_line_mark_config), (24 bytes).
    Removing gd32f4xx_ipa.o(i.ipa_pixel_format_convert_mode_set), (16 bytes).
    Removing gd32f4xx_ipa.o(i.ipa_transfer_enable), (20 bytes).
    Removing gd32f4xx_ipa.o(i.ipa_transfer_hangup_disable), (20 bytes).
    Removing gd32f4xx_ipa.o(i.ipa_transfer_hangup_enable), (20 bytes).
    Removing gd32f4xx_ipa.o(i.ipa_transfer_stop_disable), (20 bytes).
    Removing gd32f4xx_ipa.o(i.ipa_transfer_stop_enable), (20 bytes).
    Removing gd32f4xx_iref.o(.rev16_text), (4 bytes).
    Removing gd32f4xx_iref.o(.revsh_text), (4 bytes).
    Removing gd32f4xx_iref.o(i.iref_deinit), (20 bytes).
    Removing gd32f4xx_iref.o(i.iref_disable), (20 bytes).
    Removing gd32f4xx_iref.o(i.iref_enable), (20 bytes).
    Removing gd32f4xx_iref.o(i.iref_mode_set), (28 bytes).
    Removing gd32f4xx_iref.o(i.iref_precision_trim_value_set), (28 bytes).
    Removing gd32f4xx_iref.o(i.iref_sink_set), (28 bytes).
    Removing gd32f4xx_iref.o(i.iref_step_data_config), (28 bytes).
    Removing gd32f4xx_misc.o(.rev16_text), (4 bytes).
    Removing gd32f4xx_misc.o(.revsh_text), (4 bytes).
    Removing gd32f4xx_misc.o(i.nvic_irq_disable), (24 bytes).
    Removing gd32f4xx_misc.o(i.nvic_vector_table_set), (20 bytes).
    Removing gd32f4xx_misc.o(i.system_lowpower_reset), (16 bytes).
    Removing gd32f4xx_misc.o(i.system_lowpower_set), (16 bytes).
    Removing gd32f4xx_misc.o(i.systick_clksource_set), (40 bytes).
    Removing gd32f4xx_pmu.o(.rev16_text), (4 bytes).
    Removing gd32f4xx_pmu.o(.revsh_text), (4 bytes).
    Removing gd32f4xx_pmu.o(i.pmu_backup_ldo_config), (28 bytes).
    Removing gd32f4xx_pmu.o(i.pmu_backup_write_disable), (20 bytes).
    Removing gd32f4xx_pmu.o(i.pmu_backup_write_enable), (20 bytes).
    Removing gd32f4xx_pmu.o(i.pmu_deinit), (20 bytes).
    Removing gd32f4xx_pmu.o(i.pmu_flag_get), (24 bytes).
    Removing gd32f4xx_pmu.o(i.pmu_flag_reset), (48 bytes).
    Removing gd32f4xx_pmu.o(i.pmu_highdriver_mode_disable), (20 bytes).
    Removing gd32f4xx_pmu.o(i.pmu_highdriver_mode_enable), (20 bytes).
    Removing gd32f4xx_pmu.o(i.pmu_highdriver_switch_select), (44 bytes).
    Removing gd32f4xx_pmu.o(i.pmu_ldo_output_select), (28 bytes).
    Removing gd32f4xx_pmu.o(i.pmu_low_driver_mode_enable), (28 bytes).
    Removing gd32f4xx_pmu.o(i.pmu_lowdriver_lowpower_config), (28 bytes).
    Removing gd32f4xx_pmu.o(i.pmu_lowdriver_normalpower_config), (28 bytes).
    Removing gd32f4xx_pmu.o(i.pmu_lvd_disable), (20 bytes).
    Removing gd32f4xx_pmu.o(i.pmu_lvd_select), (48 bytes).
    Removing gd32f4xx_pmu.o(i.pmu_to_deepsleepmode), (196 bytes).
    Removing gd32f4xx_pmu.o(i.pmu_to_sleepmode), (28 bytes).
    Removing gd32f4xx_pmu.o(i.pmu_to_standbymode), (56 bytes).
    Removing gd32f4xx_pmu.o(i.pmu_wakeup_pin_disable), (20 bytes).
    Removing gd32f4xx_pmu.o(i.pmu_wakeup_pin_enable), (20 bytes).
    Removing gd32f4xx_pmu.o(.bss), (16 bytes).
    Removing gd32f4xx_sdio.o(.rev16_text), (4 bytes).
    Removing gd32f4xx_sdio.o(.revsh_text), (4 bytes).
    Removing gd32f4xx_sdio.o(i.sdio_bus_mode_set), (28 bytes).
    Removing gd32f4xx_sdio.o(i.sdio_ceata_command_completion_disable), (20 bytes).
    Removing gd32f4xx_sdio.o(i.sdio_ceata_command_completion_enable), (20 bytes).
    Removing gd32f4xx_sdio.o(i.sdio_ceata_command_disable), (20 bytes).
    Removing gd32f4xx_sdio.o(i.sdio_ceata_command_enable), (20 bytes).
    Removing gd32f4xx_sdio.o(i.sdio_ceata_interrupt_disable), (20 bytes).
    Removing gd32f4xx_sdio.o(i.sdio_ceata_interrupt_enable), (20 bytes).
    Removing gd32f4xx_sdio.o(i.sdio_clock_config), (52 bytes).
    Removing gd32f4xx_sdio.o(i.sdio_clock_disable), (20 bytes).
    Removing gd32f4xx_sdio.o(i.sdio_clock_enable), (20 bytes).
    Removing gd32f4xx_sdio.o(i.sdio_command_index_get), (12 bytes).
    Removing gd32f4xx_sdio.o(i.sdio_command_response_config), (56 bytes).
    Removing gd32f4xx_sdio.o(i.sdio_csm_disable), (20 bytes).
    Removing gd32f4xx_sdio.o(i.sdio_csm_enable), (20 bytes).
    Removing gd32f4xx_sdio.o(i.sdio_data_config), (60 bytes).
    Removing gd32f4xx_sdio.o(i.sdio_data_counter_get), (12 bytes).
    Removing gd32f4xx_sdio.o(i.sdio_data_read), (12 bytes).
    Removing gd32f4xx_sdio.o(i.sdio_data_transfer_config), (28 bytes).
    Removing gd32f4xx_sdio.o(i.sdio_data_write), (12 bytes).
    Removing gd32f4xx_sdio.o(i.sdio_deinit), (20 bytes).
    Removing gd32f4xx_sdio.o(i.sdio_dma_disable), (20 bytes).
    Removing gd32f4xx_sdio.o(i.sdio_dma_enable), (20 bytes).
    Removing gd32f4xx_sdio.o(i.sdio_dsm_disable), (20 bytes).
    Removing gd32f4xx_sdio.o(i.sdio_dsm_enable), (20 bytes).
    Removing gd32f4xx_sdio.o(i.sdio_fifo_counter_get), (12 bytes).
    Removing gd32f4xx_sdio.o(i.sdio_flag_clear), (12 bytes).
    Removing gd32f4xx_sdio.o(i.sdio_flag_get), (20 bytes).
    Removing gd32f4xx_sdio.o(i.sdio_hardware_clock_disable), (20 bytes).
    Removing gd32f4xx_sdio.o(i.sdio_hardware_clock_enable), (20 bytes).
    Removing gd32f4xx_sdio.o(i.sdio_interrupt_disable), (16 bytes).
    Removing gd32f4xx_sdio.o(i.sdio_interrupt_enable), (16 bytes).
    Removing gd32f4xx_sdio.o(i.sdio_interrupt_flag_clear), (12 bytes).
    Removing gd32f4xx_sdio.o(i.sdio_interrupt_flag_get), (20 bytes).
    Removing gd32f4xx_sdio.o(i.sdio_operation_disable), (20 bytes).
    Removing gd32f4xx_sdio.o(i.sdio_operation_enable), (20 bytes).
    Removing gd32f4xx_sdio.o(i.sdio_power_state_get), (12 bytes).
    Removing gd32f4xx_sdio.o(i.sdio_power_state_set), (12 bytes).
    Removing gd32f4xx_sdio.o(i.sdio_readwait_disable), (20 bytes).
    Removing gd32f4xx_sdio.o(i.sdio_readwait_enable), (20 bytes).
    Removing gd32f4xx_sdio.o(i.sdio_readwait_type_set), (40 bytes).
    Removing gd32f4xx_sdio.o(i.sdio_response_get), (60 bytes).
    Removing gd32f4xx_sdio.o(i.sdio_stop_readwait_disable), (20 bytes).
    Removing gd32f4xx_sdio.o(i.sdio_stop_readwait_enable), (20 bytes).
    Removing gd32f4xx_sdio.o(i.sdio_suspend_disable), (20 bytes).
    Removing gd32f4xx_sdio.o(i.sdio_suspend_enable), (20 bytes).
    Removing gd32f4xx_sdio.o(i.sdio_wait_type_set), (28 bytes).
    Removing gd32f4xx_spi.o(.rev16_text), (4 bytes).
    Removing gd32f4xx_spi.o(.revsh_text), (4 bytes).
    Removing gd32f4xx_spi.o(i.i2s_disable), (10 bytes).
    Removing gd32f4xx_spi.o(i.i2s_enable), (10 bytes).
    Removing gd32f4xx_spi.o(i.i2s_full_duplex_mode_config), (48 bytes).
    Removing gd32f4xx_spi.o(i.i2s_init), (28 bytes).
    Removing gd32f4xx_spi.o(i.i2s_psc_config), (292 bytes).
    Removing gd32f4xx_spi.o(i.qspi_disable), (14 bytes).
    Removing gd32f4xx_spi.o(i.qspi_enable), (14 bytes).
    Removing gd32f4xx_spi.o(i.qspi_io23_output_disable), (14 bytes).
    Removing gd32f4xx_spi.o(i.qspi_io23_output_enable), (14 bytes).
    Removing gd32f4xx_spi.o(i.qspi_read_enable), (14 bytes).
    Removing gd32f4xx_spi.o(i.qspi_write_enable), (14 bytes).
    Removing gd32f4xx_spi.o(i.spi_bidirectional_transfer_config), (26 bytes).
    Removing gd32f4xx_spi.o(i.spi_crc_error_clear), (10 bytes).
    Removing gd32f4xx_spi.o(i.spi_crc_get), (16 bytes).
    Removing gd32f4xx_spi.o(i.spi_crc_next), (10 bytes).
    Removing gd32f4xx_spi.o(i.spi_crc_off), (10 bytes).
    Removing gd32f4xx_spi.o(i.spi_crc_on), (10 bytes).
    Removing gd32f4xx_spi.o(i.spi_crc_polynomial_get), (8 bytes).
    Removing gd32f4xx_spi.o(i.spi_crc_polynomial_set), (4 bytes).
    Removing gd32f4xx_spi.o(i.spi_disable), (10 bytes).
    Removing gd32f4xx_spi.o(i.spi_dma_disable), (22 bytes).
    Removing gd32f4xx_spi.o(i.spi_dma_enable), (22 bytes).
    Removing gd32f4xx_spi.o(i.spi_enable), (10 bytes).
    Removing gd32f4xx_spi.o(i.spi_i2s_data_frame_format_config), (16 bytes).
    Removing gd32f4xx_spi.o(i.spi_i2s_data_receive), (8 bytes).
    Removing gd32f4xx_spi.o(i.spi_i2s_data_transmit), (4 bytes).
    Removing gd32f4xx_spi.o(i.spi_i2s_deinit), (172 bytes).
    Removing gd32f4xx_spi.o(i.spi_i2s_flag_get), (16 bytes).
    Removing gd32f4xx_spi.o(i.spi_i2s_interrupt_disable), (48 bytes).
    Removing gd32f4xx_spi.o(i.spi_i2s_interrupt_enable), (48 bytes).
    Removing gd32f4xx_spi.o(i.spi_i2s_interrupt_flag_get), (112 bytes).
    Removing gd32f4xx_spi.o(i.spi_init), (50 bytes).
    Removing gd32f4xx_spi.o(i.spi_nss_internal_high), (10 bytes).
    Removing gd32f4xx_spi.o(i.spi_nss_internal_low), (10 bytes).
    Removing gd32f4xx_spi.o(i.spi_nss_output_disable), (10 bytes).
    Removing gd32f4xx_spi.o(i.spi_nss_output_enable), (10 bytes).
    Removing gd32f4xx_spi.o(i.spi_struct_para_init), (18 bytes).
    Removing gd32f4xx_spi.o(i.spi_ti_mode_disable), (10 bytes).
    Removing gd32f4xx_spi.o(i.spi_ti_mode_enable), (10 bytes).
    Removing gd32f4xx_syscfg.o(.rev16_text), (4 bytes).
    Removing gd32f4xx_syscfg.o(.revsh_text), (4 bytes).
    Removing gd32f4xx_syscfg.o(i.syscfg_bootmode_config), (28 bytes).
    Removing gd32f4xx_syscfg.o(i.syscfg_compensation_config), (24 bytes).
    Removing gd32f4xx_syscfg.o(i.syscfg_deinit), (20 bytes).
    Removing gd32f4xx_syscfg.o(i.syscfg_enet_phy_interface_config), (24 bytes).
    Removing gd32f4xx_syscfg.o(i.syscfg_exmc_swap_config), (24 bytes).
    Removing gd32f4xx_syscfg.o(i.syscfg_flag_get), (24 bytes).
    Removing gd32f4xx_syscfg.o(i.syscfg_fmc_swap_config), (24 bytes).
    Removing gd32f4xx_timer.o(.rev16_text), (4 bytes).
    Removing gd32f4xx_timer.o(.revsh_text), (4 bytes).
    Removing gd32f4xx_timer.o(i.timer_auto_reload_shadow_disable), (10 bytes).
    Removing gd32f4xx_timer.o(i.timer_automatic_output_disable), (10 bytes).
    Removing gd32f4xx_timer.o(i.timer_automatic_output_enable), (10 bytes).
    Removing gd32f4xx_timer.o(i.timer_autoreload_value_config), (4 bytes).
    Removing gd32f4xx_timer.o(i.timer_break_config), (30 bytes).
    Removing gd32f4xx_timer.o(i.timer_break_disable), (10 bytes).
    Removing gd32f4xx_timer.o(i.timer_break_enable), (10 bytes).
    Removing gd32f4xx_timer.o(i.timer_break_struct_para_init), (18 bytes).
    Removing gd32f4xx_timer.o(i.timer_channel_complementary_output_polarity_config), (70 bytes).
    Removing gd32f4xx_timer.o(i.timer_channel_complementary_output_state_config), (70 bytes).
    Removing gd32f4xx_timer.o(i.timer_channel_control_shadow_config), (24 bytes).
    Removing gd32f4xx_timer.o(i.timer_channel_control_shadow_update_config), (26 bytes).
    Removing gd32f4xx_timer.o(i.timer_channel_dma_request_source_select), (26 bytes).
    Removing gd32f4xx_timer.o(i.timer_channel_input_struct_para_init), (16 bytes).
    Removing gd32f4xx_timer.o(i.timer_channel_output_clear_config), (90 bytes).
    Removing gd32f4xx_timer.o(i.timer_channel_output_fast_config), (90 bytes).
    Removing gd32f4xx_timer.o(i.timer_channel_output_polarity_config), (92 bytes).
    Removing gd32f4xx_timer.o(i.timer_channel_output_state_config), (92 bytes).
    Removing gd32f4xx_timer.o(i.timer_channel_output_struct_para_init), (16 bytes).
    Removing gd32f4xx_timer.o(i.timer_channel_remap_config), (4 bytes).
    Removing gd32f4xx_timer.o(i.timer_counter_alignment), (16 bytes).
    Removing gd32f4xx_timer.o(i.timer_counter_down_direction), (10 bytes).
    Removing gd32f4xx_timer.o(i.timer_counter_read), (8 bytes).
    Removing gd32f4xx_timer.o(i.timer_counter_up_direction), (10 bytes).
    Removing gd32f4xx_timer.o(i.timer_counter_value_config), (4 bytes).
    Removing gd32f4xx_timer.o(i.timer_disable), (10 bytes).
    Removing gd32f4xx_timer.o(i.timer_dma_disable), (8 bytes).
    Removing gd32f4xx_timer.o(i.timer_dma_enable), (8 bytes).
    Removing gd32f4xx_timer.o(i.timer_dma_transfer_config), (24 bytes).
    Removing gd32f4xx_timer.o(i.timer_event_software_generate), (8 bytes).
    Removing gd32f4xx_timer.o(i.timer_external_clock_mode0_config), (40 bytes).
    Removing gd32f4xx_timer.o(i.timer_external_clock_mode1_config), (32 bytes).
    Removing gd32f4xx_timer.o(i.timer_external_clock_mode1_disable), (10 bytes).
    Removing gd32f4xx_timer.o(i.timer_external_trigger_as_external_clock_config), (166 bytes).
    Removing gd32f4xx_timer.o(i.timer_external_trigger_config), (30 bytes).
    Removing gd32f4xx_timer.o(i.timer_flag_clear), (6 bytes).
    Removing gd32f4xx_timer.o(i.timer_flag_get), (16 bytes).
    Removing gd32f4xx_timer.o(i.timer_hall_mode_config), (26 bytes).
    Removing gd32f4xx_timer.o(i.timer_input_pwm_capture_config), (356 bytes).
    Removing gd32f4xx_timer.o(i.timer_input_trigger_source_select), (16 bytes).
    Removing gd32f4xx_timer.o(i.timer_internal_clock_config), (10 bytes).
    Removing gd32f4xx_timer.o(i.timer_internal_trigger_as_external_clock_config), (32 bytes).
    Removing gd32f4xx_timer.o(i.timer_interrupt_disable), (8 bytes).
    Removing gd32f4xx_timer.o(i.timer_master_output_trigger_source_select), (16 bytes).
    Removing gd32f4xx_timer.o(i.timer_master_slave_mode_config), (26 bytes).
    Removing gd32f4xx_timer.o(i.timer_output_value_selection_config), (34 bytes).
    Removing gd32f4xx_timer.o(i.timer_prescaler_config), (14 bytes).
    Removing gd32f4xx_timer.o(i.timer_prescaler_read), (10 bytes).
    Removing gd32f4xx_timer.o(i.timer_quadrature_decoder_mode_config), (64 bytes).
    Removing gd32f4xx_timer.o(i.timer_repetition_value_config), (4 bytes).
    Removing gd32f4xx_timer.o(i.timer_single_pulse_mode_config), (26 bytes).
    Removing gd32f4xx_timer.o(i.timer_slave_mode_select), (16 bytes).
    Removing gd32f4xx_timer.o(i.timer_struct_para_init), (22 bytes).
    Removing gd32f4xx_timer.o(i.timer_update_event_disable), (10 bytes).
    Removing gd32f4xx_timer.o(i.timer_update_event_enable), (10 bytes).
    Removing gd32f4xx_timer.o(i.timer_update_source_config), (26 bytes).
    Removing gd32f4xx_timer.o(i.timer_write_chxval_register_config), (34 bytes).
    Removing gd32f4xx_tli.o(.rev16_text), (4 bytes).
    Removing gd32f4xx_tli.o(.revsh_text), (4 bytes).
    Removing gd32f4xx_tli.o(i.tli_color_key_disable), (14 bytes).
    Removing gd32f4xx_tli.o(i.tli_color_key_enable), (14 bytes).
    Removing gd32f4xx_tli.o(i.tli_color_key_init), (16 bytes).
    Removing gd32f4xx_tli.o(i.tli_current_pos_get), (12 bytes).
    Removing gd32f4xx_tli.o(i.tli_deinit), (20 bytes).
    Removing gd32f4xx_tli.o(i.tli_disable), (20 bytes).
    Removing gd32f4xx_tli.o(i.tli_dither_config), (36 bytes).
    Removing gd32f4xx_tli.o(i.tli_enable), (20 bytes).
    Removing gd32f4xx_tli.o(i.tli_flag_get), (36 bytes).
    Removing gd32f4xx_tli.o(i.tli_init), (188 bytes).
    Removing gd32f4xx_tli.o(i.tli_interrupt_disable), (16 bytes).
    Removing gd32f4xx_tli.o(i.tli_interrupt_enable), (16 bytes).
    Removing gd32f4xx_tli.o(i.tli_interrupt_flag_clear), (16 bytes).
    Removing gd32f4xx_tli.o(i.tli_interrupt_flag_get), (36 bytes).
    Removing gd32f4xx_tli.o(i.tli_layer_disable), (14 bytes).
    Removing gd32f4xx_tli.o(i.tli_layer_enable), (14 bytes).
    Removing gd32f4xx_tli.o(i.tli_layer_init), (152 bytes).
    Removing gd32f4xx_tli.o(i.tli_layer_struct_para_init), (48 bytes).
    Removing gd32f4xx_tli.o(i.tli_layer_window_offset_modify), (228 bytes).
    Removing gd32f4xx_tli.o(i.tli_line_mark_set), (24 bytes).
    Removing gd32f4xx_tli.o(i.tli_lut_disable), (14 bytes).
    Removing gd32f4xx_tli.o(i.tli_lut_enable), (14 bytes).
    Removing gd32f4xx_tli.o(i.tli_lut_init), (36 bytes).
    Removing gd32f4xx_tli.o(i.tli_lut_struct_para_init), (12 bytes).
    Removing gd32f4xx_tli.o(i.tli_reload_config), (36 bytes).
    Removing gd32f4xx_tli.o(i.tli_struct_para_init), (34 bytes).
    Removing gd32f4xx_usart.o(.rev16_text), (4 bytes).
    Removing gd32f4xx_usart.o(.revsh_text), (4 bytes).
    Removing gd32f4xx_usart.o(i.usart_address_config), (20 bytes).
    Removing gd32f4xx_usart.o(i.usart_block_length_config), (28 bytes).
    Removing gd32f4xx_usart.o(i.usart_break_frame_coherence_config), (24 bytes).
    Removing gd32f4xx_usart.o(i.usart_data_first_config), (20 bytes).
    Removing gd32f4xx_usart.o(i.usart_disable), (10 bytes).
    Removing gd32f4xx_usart.o(i.usart_flag_clear), (26 bytes).
    Removing gd32f4xx_usart.o(i.usart_guard_time_config), (24 bytes).
    Removing gd32f4xx_usart.o(i.usart_halfduplex_disable), (10 bytes).
    Removing gd32f4xx_usart.o(i.usart_halfduplex_enable), (10 bytes).
    Removing gd32f4xx_usart.o(i.usart_hardware_flow_coherence_config), (24 bytes).
    Removing gd32f4xx_usart.o(i.usart_hardware_flow_cts_config), (16 bytes).
    Removing gd32f4xx_usart.o(i.usart_hardware_flow_rts_config), (16 bytes).
    Removing gd32f4xx_usart.o(i.usart_interrupt_disable), (26 bytes).
    Removing gd32f4xx_usart.o(i.usart_invert_config), (104 bytes).
    Removing gd32f4xx_usart.o(i.usart_irda_lowpower_config), (20 bytes).
    Removing gd32f4xx_usart.o(i.usart_irda_mode_disable), (10 bytes).
    Removing gd32f4xx_usart.o(i.usart_irda_mode_enable), (10 bytes).
    Removing gd32f4xx_usart.o(i.usart_lin_break_detection_length_config), (20 bytes).
    Removing gd32f4xx_usart.o(i.usart_lin_mode_disable), (10 bytes).
    Removing gd32f4xx_usart.o(i.usart_lin_mode_enable), (10 bytes).
    Removing gd32f4xx_usart.o(i.usart_mute_mode_disable), (10 bytes).
    Removing gd32f4xx_usart.o(i.usart_mute_mode_enable), (10 bytes).
    Removing gd32f4xx_usart.o(i.usart_mute_mode_wakeup_config), (16 bytes).
    Removing gd32f4xx_usart.o(i.usart_oversample_config), (16 bytes).
    Removing gd32f4xx_usart.o(i.usart_parity_check_coherence_config), (24 bytes).
    Removing gd32f4xx_usart.o(i.usart_parity_config), (16 bytes).
    Removing gd32f4xx_usart.o(i.usart_prescaler_config), (16 bytes).
    Removing gd32f4xx_usart.o(i.usart_receiver_timeout_disable), (14 bytes).
    Removing gd32f4xx_usart.o(i.usart_receiver_timeout_enable), (14 bytes).
    Removing gd32f4xx_usart.o(i.usart_receiver_timeout_threshold_config), (20 bytes).
    Removing gd32f4xx_usart.o(i.usart_sample_bit_config), (16 bytes).
    Removing gd32f4xx_usart.o(i.usart_send_break), (10 bytes).
    Removing gd32f4xx_usart.o(i.usart_smartcard_autoretry_config), (26 bytes).
    Removing gd32f4xx_usart.o(i.usart_smartcard_mode_disable), (10 bytes).
    Removing gd32f4xx_usart.o(i.usart_smartcard_mode_enable), (10 bytes).
    Removing gd32f4xx_usart.o(i.usart_smartcard_mode_nack_disable), (10 bytes).
    Removing gd32f4xx_usart.o(i.usart_smartcard_mode_nack_enable), (10 bytes).
    Removing gd32f4xx_usart.o(i.usart_stop_bit_set), (16 bytes).
    Removing gd32f4xx_usart.o(i.usart_synchronous_clock_config), (34 bytes).
    Removing gd32f4xx_usart.o(i.usart_synchronous_clock_disable), (10 bytes).
    Removing gd32f4xx_usart.o(i.usart_synchronous_clock_enable), (10 bytes).
    Removing gd32f4xx_usart.o(i.usart_word_length_set), (16 bytes).
    Removing gd32f4xx_wwdgt.o(.rev16_text), (4 bytes).
    Removing gd32f4xx_wwdgt.o(.revsh_text), (4 bytes).
    Removing gd32f4xx_wwdgt.o(i.wwdgt_config), (56 bytes).
    Removing gd32f4xx_wwdgt.o(i.wwdgt_counter_update), (28 bytes).
    Removing gd32f4xx_wwdgt.o(i.wwdgt_deinit), (20 bytes).
    Removing gd32f4xx_wwdgt.o(i.wwdgt_enable), (20 bytes).
    Removing gd32f4xx_wwdgt.o(i.wwdgt_flag_clear), (20 bytes).
    Removing gd32f4xx_wwdgt.o(i.wwdgt_flag_get), (24 bytes).
    Removing gd32f4xx_wwdgt.o(i.wwdgt_interrupt_enable), (20 bytes).
    Removing startup_gd32f450.o(HEAP), (1024 bytes).
    Removing gd32f450i_eval.o(.rev16_text), (4 bytes).
    Removing gd32f450i_eval.o(.revsh_text), (4 bytes).
    Removing gd32f450i_eval.o(i.gd_eval_com_init), (184 bytes).
    Removing gd32f450i_eval.o(i.gd_eval_key_init), (128 bytes).
    Removing gd32f450i_eval.o(i.gd_eval_key_state_get), (32 bytes).
    Removing gd32f450i_eval.o(i.gd_eval_led_init), (84 bytes).
    Removing gd32f450i_eval.o(i.gd_eval_led_off), (24 bytes).
    Removing gd32f450i_eval.o(i.gd_eval_led_on), (24 bytes).
    Removing gd32f450i_eval.o(i.gd_eval_led_toggle), (24 bytes).
    Removing gd32f450i_eval.o(.data), (97 bytes).
    Removing bsp_beep.o(.rev16_text), (4 bytes).
    Removing bsp_beep.o(.revsh_text), (4 bytes).
    Removing bsp_beep.o(i.BEEP_InitHard), (2 bytes).
    Removing bsp_beep.o(i.BEEP_KeyTone), (18 bytes).
    Removing bsp_beep.o(i.BEEP_Pro), (168 bytes).
    Removing bsp_beep.o(i.BEEP_Stop), (24 bytes).
    Removing bsp_cpu_flash.o(.rev16_text), (4 bytes).
    Removing bsp_cpu_flash.o(.revsh_text), (4 bytes).
    Removing bsp_cpu_flash.o(i.FlashEease), (12 bytes).
    Removing bsp_cpu_flash.o(i.bsp_CmpCpuFlash), (72 bytes).
    Removing bsp_cpu_flash.o(i.bsp_GetSector), (10 bytes).
    Removing bsp_cpu_flash.o(i.bsp_ReadCpuFlash), (52 bytes).
    Removing bsp_cpu_flash.o(i.bsp_WriteCpuFlash), (52 bytes).
    Removing devctrl.o(.rev16_text), (4 bytes).
    Removing devctrl.o(.revsh_text), (4 bytes).
    Removing devctrl.o(i.BeepCtrl), (2 bytes).
    Removing devctrl.o(i.EleCtrl), (124 bytes).
    Removing hmi_driver.o(.rev16_text), (4 bytes).
    Removing hmi_driver.o(.revsh_text), (4 bytes).
    Removing hmi_driver.o(i.ADDNU8), (26 bytes).
    Removing hmi_driver.o(i.CalibrateTouchPane), (18 bytes).
    Removing hmi_driver.o(i.DisplayCut_Image), (90 bytes).
    Removing hmi_driver.o(i.Display_Image), (54 bytes).
    Removing hmi_driver.o(i.GUI_CleanScreen), (32 bytes).
    Removing hmi_driver.o(i.GUI_Line), (98 bytes).
    Removing hmi_driver.o(i.GUI_Rectangle), (98 bytes).
    Removing hmi_driver.o(i.GetCheckboxValue), (34 bytes).
    Removing hmi_driver.o(i.GetPage), (18 bytes).
    Removing hmi_driver.o(i.GetSliderValue), (34 bytes).
    Removing hmi_driver.o(i.SetCheckboxValue), (42 bytes).
    Removing hmi_driver.o(i.SetConnect), (18 bytes).
    Removing hmi_driver.o(i.SetEditValue), (54 bytes).
    Removing hmi_driver.o(i.SetSliderValue), (42 bytes).
    Removing hmi_driver.o(i.SetTouchPaneOption), (26 bytes).
    Removing hmi_driver.o(i.TestTouchPane), (32 bytes).
    Removing hmi_driver.o(i.WaveformDataClear), (34 bytes).
    Removing hmi_driver.o(i.WaveformDataInsert), (54 bytes).
    Removing hmi_driver.o(i.WaveformDataRefress), (42 bytes).
    Removing i2c.o(.rev16_text), (4 bytes).
    Removing i2c.o(.revsh_text), (4 bytes).
    Removing sensor.o(.rev16_text), (4 bytes).
    Removing sensor.o(.revsh_text), (4 bytes).
    Removing sensor.o(i.adcInit), (2 bytes).
    Removing sensor.o(i.adcResume), (2 bytes).
    Removing sensor.o(i.get_adc_buf), (8 bytes).
    Removing timer.o(.rev16_text), (4 bytes).
    Removing timer.o(.revsh_text), (4 bytes).
    Removing timer.o(i.TIM3_CH3_Cap_Init), (2 bytes).
    Removing fmc_operation.o(.rev16_text), (4 bytes).
    Removing fmc_operation.o(.revsh_text), (4 bytes).
    Removing fmc_operation.o(i.fmc_erase_sector_by_address), (340 bytes).
    Removing fmc_operation.o(i.fmc_read_16bit_data), (128 bytes).
    Removing fmc_operation.o(i.fmc_read_32bit_data), (128 bytes).
    Removing fmc_operation.o(i.fmc_read_8bit_data), (124 bytes).
    Removing fmc_operation.o(i.fmc_sector_info_get), (388 bytes).
    Removing fmc_operation.o(i.fmc_write_16bit_data), (216 bytes).
    Removing fmc_operation.o(i.fmc_write_32bit_data), (208 bytes).
    Removing fmc_operation.o(i.fmc_write_8bit_data), (212 bytes).
    Removing fmc_operation.o(i.sector_name_to_number), (48 bytes).
    Removing app.o(.rev16_text), (4 bytes).
    Removing app.o(.revsh_text), (4 bytes).
    Removing app.o(i.SystemParamsRead), (16 bytes).
    Removing app.o(i.SystemParamsSave), (2 bytes).
    Removing app.o(i.app_init), (8 bytes).
    Removing app.o(i.app_test), (268 bytes).
    Removing app_lcd.o(.rev16_text), (4 bytes).
    Removing app_lcd.o(.revsh_text), (4 bytes).
    Removing app_lcd.o(i.NotifyBarGauge), (2 bytes).
    Removing app_lcd.o(i.NotifyBattery), (2 bytes).
    Removing app_lcd.o(i.NotifyCircleGauge), (2 bytes).
    Removing app_lcd.o(i.NotifyLable), (16 bytes).
    Removing app_lcd.o(i.NotifyNumber), (16 bytes).
    Removing app_lcd.o(i.NotifyProgressbar), (2 bytes).
    Removing app_lcd.o(i.NotifySetWaveformValue), (2 bytes).
    Removing app_lcd.o(i.NotifyThermometer), (2 bytes).
    Removing app_lcd.o(i.NotifyWaterGauge), (2 bytes).
    Removing app_lcd.o(i.NotifyWaveformDataInsert), (2 bytes).
    Removing cmd_queue.o(.rev16_text), (4 bytes).
    Removing cmd_queue.o(.revsh_text), (4 bytes).
    Removing crc.o(.rev16_text), (4 bytes).
    Removing crc.o(.revsh_text), (4 bytes).
    Removing filter.o(.rev16_text), (4 bytes).
    Removing filter.o(.revsh_text), (4 bytes).
    Removing filter.o(i.filter), (110 bytes).
    Removing filter.o(i.filter2), (200 bytes).
    Removing filter.o(.bss), (44 bytes).
    Removing filter.o(.data), (4 bytes).
    Removing inout.o(.rev16_text), (4 bytes).
    Removing inout.o(.revsh_text), (4 bytes).
    Removing inout.o(i.Send_LED_Data), (292 bytes).
    Removing inout.o(i.inout_Init), (148 bytes).
    Removing inout.o(i.inout_callback), (108 bytes).
    Removing modbus.o(.rev16_text), (4 bytes).
    Removing modbus.o(.revsh_text), (4 bytes).
    Removing modbus.o(i.RS485_Init), (108 bytes).
    Removing modbus.o(i.getModbusPayload), (8 bytes).
    Removing pid.o(.rev16_text), (4 bytes).
    Removing pid.o(.revsh_text), (4 bytes).
    Removing pid.o(i.actuator), (2 bytes).
    Removing sys.o(.rev16_text), (4 bytes).
    Removing sys.o(.revsh_text), (4 bytes).
    Removing dneg.o(.text), (6 bytes).

956 unused section(s) (total 55493 bytes) removed from the image.

==============================================================================

Image Symbol Table

    Local Symbols

    Symbol Name                              Value     Ov Type        Size  Object(Section)

    ../clib/microlib/division.c              0x00000000   Number         0  uidiv.o ABSOLUTE
    ../clib/microlib/division.c              0x00000000   Number         0  uldiv.o ABSOLUTE
    ../clib/microlib/errno.c                 0x00000000   Number         0  errno.o ABSOLUTE
    ../clib/microlib/init/entry.s            0x00000000   Number         0  entry7a.o ABSOLUTE
    ../clib/microlib/init/entry.s            0x00000000   Number         0  entry9b.o ABSOLUTE
    ../clib/microlib/init/entry.s            0x00000000   Number         0  entry9a.o ABSOLUTE
    ../clib/microlib/init/entry.s            0x00000000   Number         0  entry8a.o ABSOLUTE
    ../clib/microlib/init/entry.s            0x00000000   Number         0  entry10a.o ABSOLUTE
    ../clib/microlib/init/entry.s            0x00000000   Number         0  entry7b.o ABSOLUTE
    ../clib/microlib/init/entry.s            0x00000000   Number         0  entry8b.o ABSOLUTE
    ../clib/microlib/init/entry.s            0x00000000   Number         0  entry.o ABSOLUTE
    ../clib/microlib/init/entry.s            0x00000000   Number         0  entry5.o ABSOLUTE
    ../clib/microlib/init/entry.s            0x00000000   Number         0  entry10b.o ABSOLUTE
    ../clib/microlib/init/entry.s            0x00000000   Number         0  entry2.o ABSOLUTE
    ../clib/microlib/init/entry.s            0x00000000   Number         0  entry11b.o ABSOLUTE
    ../clib/microlib/init/entry.s            0x00000000   Number         0  entry11a.o ABSOLUTE
    ../clib/microlib/longlong.c              0x00000000   Number         0  llsshr.o ABSOLUTE
    ../clib/microlib/longlong.c              0x00000000   Number         0  llushr.o ABSOLUTE
    ../clib/microlib/longlong.c              0x00000000   Number         0  llshl.o ABSOLUTE
    ../clib/microlib/printf/printf.c         0x00000000   Number         0  printf6.o ABSOLUTE
    ../clib/microlib/printf/printf.c         0x00000000   Number         0  printf4.o ABSOLUTE
    ../clib/microlib/printf/printf.c         0x00000000   Number         0  printf5.o ABSOLUTE
    ../clib/microlib/printf/printf.c         0x00000000   Number         0  printf7.o ABSOLUTE
    ../clib/microlib/printf/printf.c         0x00000000   Number         0  printf1.o ABSOLUTE
    ../clib/microlib/printf/printf.c         0x00000000   Number         0  printf8.o ABSOLUTE
    ../clib/microlib/printf/printf.c         0x00000000   Number         0  printf3.o ABSOLUTE
    ../clib/microlib/printf/printf.c         0x00000000   Number         0  printfa.o ABSOLUTE
    ../clib/microlib/printf/printf.c         0x00000000   Number         0  printfb.o ABSOLUTE
    ../clib/microlib/printf/printf.c         0x00000000   Number         0  printf0.o ABSOLUTE
    ../clib/microlib/printf/printf.c         0x00000000   Number         0  printf2.o ABSOLUTE
    ../clib/microlib/printf/stubs.s          0x00000000   Number         0  stubs.o ABSOLUTE
    ../clib/microlib/string/memcpy.c         0x00000000   Number         0  memcpya.o ABSOLUTE
    ../clib/microlib/string/memcpy.c         0x00000000   Number         0  memcpyb.o ABSOLUTE
    ../clib/microlib/string/memset.c         0x00000000   Number         0  memseta.o ABSOLUTE
    ../clib/microlib/string/strlen.c         0x00000000   Number         0  strlen.o ABSOLUTE
    ../clib/microlib/stubs.s                 0x00000000   Number         0  iusefp.o ABSOLUTE
    ../fplib/microlib/d2f.c                  0x00000000   Number         0  d2f.o ABSOLUTE
    ../fplib/microlib/f2d.c                  0x00000000   Number         0  f2d.o ABSOLUTE
    ../fplib/microlib/fpadd.c                0x00000000   Number         0  dadd.o ABSOLUTE
    ../fplib/microlib/fpdiv.c                0x00000000   Number         0  ddiv.o ABSOLUTE
    ../fplib/microlib/fpepilogue.c           0x00000000   Number         0  fepilogue.o ABSOLUTE
    ../fplib/microlib/fpepilogue.c           0x00000000   Number         0  depilogue.o ABSOLUTE
    ../fplib/microlib/fpfix.c                0x00000000   Number         0  dfixui.o ABSOLUTE
    ../fplib/microlib/fpfix.c                0x00000000   Number         0  dfixul.o ABSOLUTE
    ../fplib/microlib/fpfix.c                0x00000000   Number         0  dfixi.o ABSOLUTE
    ../fplib/microlib/fpflt.c                0x00000000   Number         0  dflti.o ABSOLUTE
    ../fplib/microlib/fpflt.c                0x00000000   Number         0  dfltui.o ABSOLUTE
    ../fplib/microlib/fpmul.c                0x00000000   Number         0  dmul.o ABSOLUTE
    ../fplib/microlib/fpneg.c                0x00000000   Number         0  dneg.o ABSOLUTE
    ../mathlib/cos_i.c                       0x00000000   Number         0  cos_i.o ABSOLUTE
    ../mathlib/dunder.c                      0x00000000   Number         0  dunder.o ABSOLUTE
    ../mathlib/fabs.c                        0x00000000   Number         0  fabs.o ABSOLUTE
    ../mathlib/fpclassify.c                  0x00000000   Number         0  fpclassify.o ABSOLUTE
    ../mathlib/poly.c                        0x00000000   Number         0  poly.o ABSOLUTE
    ../mathlib/rred.c                        0x00000000   Number         0  rred.o ABSOLUTE
    ../mathlib/sin.c                         0x00000000   Number         0  sin.o ABSOLUTE
    ../mathlib/sin.c                         0x00000000   Number         0  sin_x.o ABSOLUTE
    ../mathlib/sin_i.c                       0x00000000   Number         0  sin_i_x.o ABSOLUTE
    ../mathlib/sin_i.c                       0x00000000   Number         0  sin_i.o ABSOLUTE
    ..\..\Firmware\CMSIS\GD\GD32F4xx\Source\ARM\startup_gd32f450.s 0x00000000   Number         0  startup_gd32f450.o ABSOLUTE
    ..\..\Firmware\CMSIS\GD\GD32F4xx\Source\system_gd32f4xx.c 0x00000000   Number         0  system_gd32f4xx.o ABSOLUTE
    ..\..\Firmware\GD32F4xx_standard_peripheral\Source\gd32f4xx_adc.c 0x00000000   Number         0  gd32f4xx_adc.o ABSOLUTE
    ..\..\Firmware\GD32F4xx_standard_peripheral\Source\gd32f4xx_can.c 0x00000000   Number         0  gd32f4xx_can.o ABSOLUTE
    ..\..\Firmware\GD32F4xx_standard_peripheral\Source\gd32f4xx_crc.c 0x00000000   Number         0  gd32f4xx_crc.o ABSOLUTE
    ..\..\Firmware\GD32F4xx_standard_peripheral\Source\gd32f4xx_ctc.c 0x00000000   Number         0  gd32f4xx_ctc.o ABSOLUTE
    ..\..\Firmware\GD32F4xx_standard_peripheral\Source\gd32f4xx_dac.c 0x00000000   Number         0  gd32f4xx_dac.o ABSOLUTE
    ..\..\Firmware\GD32F4xx_standard_peripheral\Source\gd32f4xx_dbg.c 0x00000000   Number         0  gd32f4xx_dbg.o ABSOLUTE
    ..\..\Firmware\GD32F4xx_standard_peripheral\Source\gd32f4xx_dci.c 0x00000000   Number         0  gd32f4xx_dci.o ABSOLUTE
    ..\..\Firmware\GD32F4xx_standard_peripheral\Source\gd32f4xx_dma.c 0x00000000   Number         0  gd32f4xx_dma.o ABSOLUTE
    ..\..\Firmware\GD32F4xx_standard_peripheral\Source\gd32f4xx_enet.c 0x00000000   Number         0  gd32f4xx_enet.o ABSOLUTE
    ..\..\Firmware\GD32F4xx_standard_peripheral\Source\gd32f4xx_exmc.c 0x00000000   Number         0  gd32f4xx_exmc.o ABSOLUTE
    ..\..\Firmware\GD32F4xx_standard_peripheral\Source\gd32f4xx_exti.c 0x00000000   Number         0  gd32f4xx_exti.o ABSOLUTE
    ..\..\Firmware\GD32F4xx_standard_peripheral\Source\gd32f4xx_fmc.c 0x00000000   Number         0  gd32f4xx_fmc.o ABSOLUTE
    ..\..\Firmware\GD32F4xx_standard_peripheral\Source\gd32f4xx_fwdgt.c 0x00000000   Number         0  gd32f4xx_fwdgt.o ABSOLUTE
    ..\..\Firmware\GD32F4xx_standard_peripheral\Source\gd32f4xx_gpio.c 0x00000000   Number         0  gd32f4xx_gpio.o ABSOLUTE
    ..\..\Firmware\GD32F4xx_standard_peripheral\Source\gd32f4xx_i2c.c 0x00000000   Number         0  gd32f4xx_i2c.o ABSOLUTE
    ..\..\Firmware\GD32F4xx_standard_peripheral\Source\gd32f4xx_ipa.c 0x00000000   Number         0  gd32f4xx_ipa.o ABSOLUTE
    ..\..\Firmware\GD32F4xx_standard_peripheral\Source\gd32f4xx_iref.c 0x00000000   Number         0  gd32f4xx_iref.o ABSOLUTE
    ..\..\Firmware\GD32F4xx_standard_peripheral\Source\gd32f4xx_misc.c 0x00000000   Number         0  gd32f4xx_misc.o ABSOLUTE
    ..\..\Firmware\GD32F4xx_standard_peripheral\Source\gd32f4xx_pmu.c 0x00000000   Number         0  gd32f4xx_pmu.o ABSOLUTE
    ..\..\Firmware\GD32F4xx_standard_peripheral\Source\gd32f4xx_rcu.c 0x00000000   Number         0  gd32f4xx_rcu.o ABSOLUTE
    ..\..\Firmware\GD32F4xx_standard_peripheral\Source\gd32f4xx_rtc.c 0x00000000   Number         0  gd32f4xx_rtc.o ABSOLUTE
    ..\..\Firmware\GD32F4xx_standard_peripheral\Source\gd32f4xx_sdio.c 0x00000000   Number         0  gd32f4xx_sdio.o ABSOLUTE
    ..\..\Firmware\GD32F4xx_standard_peripheral\Source\gd32f4xx_spi.c 0x00000000   Number         0  gd32f4xx_spi.o ABSOLUTE
    ..\..\Firmware\GD32F4xx_standard_peripheral\Source\gd32f4xx_syscfg.c 0x00000000   Number         0  gd32f4xx_syscfg.o ABSOLUTE
    ..\..\Firmware\GD32F4xx_standard_peripheral\Source\gd32f4xx_timer.c 0x00000000   Number         0  gd32f4xx_timer.o ABSOLUTE
    ..\..\Firmware\GD32F4xx_standard_peripheral\Source\gd32f4xx_tli.c 0x00000000   Number         0  gd32f4xx_tli.o ABSOLUTE
    ..\..\Firmware\GD32F4xx_standard_peripheral\Source\gd32f4xx_trng.c 0x00000000   Number         0  gd32f4xx_trng.o ABSOLUTE
    ..\..\Firmware\GD32F4xx_standard_peripheral\Source\gd32f4xx_usart.c 0x00000000   Number         0  gd32f4xx_usart.o ABSOLUTE
    ..\..\Firmware\GD32F4xx_standard_peripheral\Source\gd32f4xx_wwdgt.c 0x00000000   Number         0  gd32f4xx_wwdgt.o ABSOLUTE
    ..\..\Utilities\gd32f450i_eval.c         0x00000000   Number         0  gd32f450i_eval.o ABSOLUTE
    ..\..\src\I2C.C                          0x00000000   Number         0  i2c.o ABSOLUTE
    ..\..\src\app.c                          0x00000000   Number         0  app.o ABSOLUTE
    ..\..\src\app_lcd.c                      0x00000000   Number         0  app_lcd.o ABSOLUTE
    ..\..\src\bsp_beep.c                     0x00000000   Number         0  bsp_beep.o ABSOLUTE
    ..\..\src\bsp_cpu_flash.c                0x00000000   Number         0  bsp_cpu_flash.o ABSOLUTE
    ..\..\src\cmd_queue.c                    0x00000000   Number         0  cmd_queue.o ABSOLUTE
    ..\..\src\crc.c                          0x00000000   Number         0  crc.o ABSOLUTE
    ..\..\src\devCtrl.c                      0x00000000   Number         0  devctrl.o ABSOLUTE
    ..\..\src\filter.c                       0x00000000   Number         0  filter.o ABSOLUTE
    ..\..\src\fmc_operation.c                0x00000000   Number         0  fmc_operation.o ABSOLUTE
    ..\..\src\hmi_driver.c                   0x00000000   Number         0  hmi_driver.o ABSOLUTE
    ..\..\src\inout.c                        0x00000000   Number         0  inout.o ABSOLUTE
    ..\..\src\modbus.c                       0x00000000   Number         0  modbus.o ABSOLUTE
    ..\..\src\pid.c                          0x00000000   Number         0  pid.o ABSOLUTE
    ..\..\src\sensor.c                       0x00000000   Number         0  sensor.o ABSOLUTE
    ..\..\src\sys.c                          0x00000000   Number         0  sys.o ABSOLUTE
    ..\..\src\timer.c                        0x00000000   Number         0  timer.o ABSOLUTE
    ..\\..\\Firmware\\CMSIS\\GD\\GD32F4xx\\Source\\system_gd32f4xx.c 0x00000000   Number         0  system_gd32f4xx.o ABSOLUTE
    ..\\..\\Firmware\\GD32F4xx_standard_peripheral\\Source\\gd32f4xx_adc.c 0x00000000   Number         0  gd32f4xx_adc.o ABSOLUTE
    ..\\..\\Firmware\\GD32F4xx_standard_peripheral\\Source\\gd32f4xx_can.c 0x00000000   Number         0  gd32f4xx_can.o ABSOLUTE
    ..\\..\\Firmware\\GD32F4xx_standard_peripheral\\Source\\gd32f4xx_crc.c 0x00000000   Number         0  gd32f4xx_crc.o ABSOLUTE
    ..\\..\\Firmware\\GD32F4xx_standard_peripheral\\Source\\gd32f4xx_ctc.c 0x00000000   Number         0  gd32f4xx_ctc.o ABSOLUTE
    ..\\..\\Firmware\\GD32F4xx_standard_peripheral\\Source\\gd32f4xx_dac.c 0x00000000   Number         0  gd32f4xx_dac.o ABSOLUTE
    ..\\..\\Firmware\\GD32F4xx_standard_peripheral\\Source\\gd32f4xx_dbg.c 0x00000000   Number         0  gd32f4xx_dbg.o ABSOLUTE
    ..\\..\\Firmware\\GD32F4xx_standard_peripheral\\Source\\gd32f4xx_dci.c 0x00000000   Number         0  gd32f4xx_dci.o ABSOLUTE
    ..\\..\\Firmware\\GD32F4xx_standard_peripheral\\Source\\gd32f4xx_dma.c 0x00000000   Number         0  gd32f4xx_dma.o ABSOLUTE
    ..\\..\\Firmware\\GD32F4xx_standard_peripheral\\Source\\gd32f4xx_enet.c 0x00000000   Number         0  gd32f4xx_enet.o ABSOLUTE
    ..\\..\\Firmware\\GD32F4xx_standard_peripheral\\Source\\gd32f4xx_exmc.c 0x00000000   Number         0  gd32f4xx_exmc.o ABSOLUTE
    ..\\..\\Firmware\\GD32F4xx_standard_peripheral\\Source\\gd32f4xx_exti.c 0x00000000   Number         0  gd32f4xx_exti.o ABSOLUTE
    ..\\..\\Firmware\\GD32F4xx_standard_peripheral\\Source\\gd32f4xx_fmc.c 0x00000000   Number         0  gd32f4xx_fmc.o ABSOLUTE
    ..\\..\\Firmware\\GD32F4xx_standard_peripheral\\Source\\gd32f4xx_fwdgt.c 0x00000000   Number         0  gd32f4xx_fwdgt.o ABSOLUTE
    ..\\..\\Firmware\\GD32F4xx_standard_peripheral\\Source\\gd32f4xx_gpio.c 0x00000000   Number         0  gd32f4xx_gpio.o ABSOLUTE
    ..\\..\\Firmware\\GD32F4xx_standard_peripheral\\Source\\gd32f4xx_i2c.c 0x00000000   Number         0  gd32f4xx_i2c.o ABSOLUTE
    ..\\..\\Firmware\\GD32F4xx_standard_peripheral\\Source\\gd32f4xx_ipa.c 0x00000000   Number         0  gd32f4xx_ipa.o ABSOLUTE
    ..\\..\\Firmware\\GD32F4xx_standard_peripheral\\Source\\gd32f4xx_iref.c 0x00000000   Number         0  gd32f4xx_iref.o ABSOLUTE
    ..\\..\\Firmware\\GD32F4xx_standard_peripheral\\Source\\gd32f4xx_misc.c 0x00000000   Number         0  gd32f4xx_misc.o ABSOLUTE
    ..\\..\\Firmware\\GD32F4xx_standard_peripheral\\Source\\gd32f4xx_pmu.c 0x00000000   Number         0  gd32f4xx_pmu.o ABSOLUTE
    ..\\..\\Firmware\\GD32F4xx_standard_peripheral\\Source\\gd32f4xx_rcu.c 0x00000000   Number         0  gd32f4xx_rcu.o ABSOLUTE
    ..\\..\\Firmware\\GD32F4xx_standard_peripheral\\Source\\gd32f4xx_rtc.c 0x00000000   Number         0  gd32f4xx_rtc.o ABSOLUTE
    ..\\..\\Firmware\\GD32F4xx_standard_peripheral\\Source\\gd32f4xx_sdio.c 0x00000000   Number         0  gd32f4xx_sdio.o ABSOLUTE
    ..\\..\\Firmware\\GD32F4xx_standard_peripheral\\Source\\gd32f4xx_spi.c 0x00000000   Number         0  gd32f4xx_spi.o ABSOLUTE
    ..\\..\\Firmware\\GD32F4xx_standard_peripheral\\Source\\gd32f4xx_syscfg.c 0x00000000   Number         0  gd32f4xx_syscfg.o ABSOLUTE
    ..\\..\\Firmware\\GD32F4xx_standard_peripheral\\Source\\gd32f4xx_timer.c 0x00000000   Number         0  gd32f4xx_timer.o ABSOLUTE
    ..\\..\\Firmware\\GD32F4xx_standard_peripheral\\Source\\gd32f4xx_tli.c 0x00000000   Number         0  gd32f4xx_tli.o ABSOLUTE
    ..\\..\\Firmware\\GD32F4xx_standard_peripheral\\Source\\gd32f4xx_trng.c 0x00000000   Number         0  gd32f4xx_trng.o ABSOLUTE
    ..\\..\\Firmware\\GD32F4xx_standard_peripheral\\Source\\gd32f4xx_usart.c 0x00000000   Number         0  gd32f4xx_usart.o ABSOLUTE
    ..\\..\\Firmware\\GD32F4xx_standard_peripheral\\Source\\gd32f4xx_wwdgt.c 0x00000000   Number         0  gd32f4xx_wwdgt.o ABSOLUTE
    ..\\..\\Utilities\\gd32f450i_eval.c      0x00000000   Number         0  gd32f450i_eval.o ABSOLUTE
    ..\\..\\src\\I2C.C                       0x00000000   Number         0  i2c.o ABSOLUTE
    ..\\..\\src\\app.c                       0x00000000   Number         0  app.o ABSOLUTE
    ..\\..\\src\\app_lcd.c                   0x00000000   Number         0  app_lcd.o ABSOLUTE
    ..\\..\\src\\bsp_beep.c                  0x00000000   Number         0  bsp_beep.o ABSOLUTE
    ..\\..\\src\\bsp_cpu_flash.c             0x00000000   Number         0  bsp_cpu_flash.o ABSOLUTE
    ..\\..\\src\\cmd_queue.c                 0x00000000   Number         0  cmd_queue.o ABSOLUTE
    ..\\..\\src\\crc.c                       0x00000000   Number         0  crc.o ABSOLUTE
    ..\\..\\src\\devCtrl.c                   0x00000000   Number         0  devctrl.o ABSOLUTE
    ..\\..\\src\\filter.c                    0x00000000   Number         0  filter.o ABSOLUTE
    ..\\..\\src\\fmc_operation.c             0x00000000   Number         0  fmc_operation.o ABSOLUTE
    ..\\..\\src\\hmi_driver.c                0x00000000   Number         0  hmi_driver.o ABSOLUTE
    ..\\..\\src\\inout.c                     0x00000000   Number         0  inout.o ABSOLUTE
    ..\\..\\src\\modbus.c                    0x00000000   Number         0  modbus.o ABSOLUTE
    ..\\..\\src\\pid.c                       0x00000000   Number         0  pid.o ABSOLUTE
    ..\\..\\src\\sensor.c                    0x00000000   Number         0  sensor.o ABSOLUTE
    ..\\..\\src\\sys.c                       0x00000000   Number         0  sys.o ABSOLUTE
    ..\\..\\src\\timer.c                     0x00000000   Number         0  timer.o ABSOLUTE
    ..\\gd32f4xx_it.c                        0x00000000   Number         0  gd32f4xx_it.o ABSOLUTE
    ..\\main.c                               0x00000000   Number         0  main.o ABSOLUTE
    ..\gd32f4xx_it.c                         0x00000000   Number         0  gd32f4xx_it.o ABSOLUTE
    ..\main.c                                0x00000000   Number         0  main.o ABSOLUTE
    cdcmple.s                                0x00000000   Number         0  cdcmple.o ABSOLUTE
    cdrcmple.s                               0x00000000   Number         0  cdrcmple.o ABSOLUTE
    dc.s                                     0x00000000   Number         0  dc.o ABSOLUTE
    handlers.s                               0x00000000   Number         0  handlers.o ABSOLUTE
    init.s                                   0x00000000   Number         0  init.o ABSOLUTE
    RESET                                    0x08000000   Section      428  startup_gd32f450.o(RESET)
    .ARM.Collect$$$$00000000                 0x080001ac   Section        0  entry.o(.ARM.Collect$$$$00000000)
    .ARM.Collect$$$$00000001                 0x080001ac   Section        4  entry2.o(.ARM.Collect$$$$00000001)
    .ARM.Collect$$$$00000004                 0x080001b0   Section        4  entry5.o(.ARM.Collect$$$$00000004)
    .ARM.Collect$$$$00000008                 0x080001b4   Section        0  entry7b.o(.ARM.Collect$$$$00000008)
    .ARM.Collect$$$$0000000A                 0x080001b4   Section        0  entry8b.o(.ARM.Collect$$$$0000000A)
    .ARM.Collect$$$$0000000B                 0x080001b4   Section        8  entry9a.o(.ARM.Collect$$$$0000000B)
    .ARM.Collect$$$$0000000D                 0x080001bc   Section        0  entry10a.o(.ARM.Collect$$$$0000000D)
    .ARM.Collect$$$$0000000F                 0x080001bc   Section        0  entry11a.o(.ARM.Collect$$$$0000000F)
    .ARM.Collect$$$$00002712                 0x080001bc   Section        4  entry2.o(.ARM.Collect$$$$00002712)
    __lit__00000000                          0x080001bc   Data           4  entry2.o(.ARM.Collect$$$$00002712)
    .text                                    0x080001c0   Section       36  startup_gd32f450.o(.text)
    $v0                                      0x080001c0   Number         0  startup_gd32f450.o(.text)
    .text                                    0x080001e4   Section        0  memcpya.o(.text)
    .text                                    0x08000208   Section        0  memseta.o(.text)
    .text                                    0x0800022c   Section        0  strlen.o(.text)
    .text                                    0x0800023a   Section        0  dadd.o(.text)
    .text                                    0x08000388   Section        0  dmul.o(.text)
    .text                                    0x0800046c   Section        0  ddiv.o(.text)
    .text                                    0x0800054a   Section        0  dflti.o(.text)
    .text                                    0x0800056c   Section        0  dfltui.o(.text)
    .text                                    0x08000586   Section        0  dfixi.o(.text)
    .text                                    0x080005c4   Section        0  dfixui.o(.text)
    .text                                    0x080005f6   Section        0  f2d.o(.text)
    .text                                    0x0800061c   Section       48  cdcmple.o(.text)
    .text                                    0x0800064c   Section       48  cdrcmple.o(.text)
    .text                                    0x0800067c   Section        0  d2f.o(.text)
    .text                                    0x080006b4   Section        0  uidiv.o(.text)
    .text                                    0x080006e0   Section        0  uldiv.o(.text)
    .text                                    0x08000742   Section        0  llshl.o(.text)
    .text                                    0x08000760   Section        0  llushr.o(.text)
    .text                                    0x08000780   Section        0  llsshr.o(.text)
    .text                                    0x080007a4   Section        0  iusefp.o(.text)
    .text                                    0x080007a4   Section        0  fepilogue.o(.text)
    .text                                    0x08000812   Section        0  depilogue.o(.text)
    .text                                    0x080008cc   Section        0  dfixul.o(.text)
    .text                                    0x080008fc   Section       36  init.o(.text)
    i.ADD_DATA                               0x08000920   Section        0  hmi_driver.o(i.ADD_DATA)
    i.Ack_I2c                                0x0800093c   Section        0  i2c.o(i.Ack_I2c)
    i.BEEP_Start                             0x080009a0   Section        0  bsp_beep.o(i.BEEP_Start)
    i.BEGIN_CMD                              0x080009dc   Section        0  hmi_driver.o(i.BEGIN_CMD)
    i.BusFault_Handler                       0x080009e8   Section        0  gd32f4xx_it.o(i.BusFault_Handler)
    i.CRC_Compute                            0x080009ec   Section        0  crc.o(i.CRC_Compute)
    i.DMA1_Channel2_IRQHandler               0x08000a24   Section        0  gd32f4xx_it.o(i.DMA1_Channel2_IRQHandler)
    i.DMA1_Channel7_IRQHandler               0x08000a40   Section        0  gd32f4xx_it.o(i.DMA1_Channel7_IRQHandler)
    i.DcMotorCtrl                            0x08000a60   Section        0  devctrl.o(i.DcMotorCtrl)
    i.DebugMon_Handler                       0x08000ac0   Section        0  gd32f4xx_it.o(i.DebugMon_Handler)
    i.Display_Message                        0x08000ac2   Section        0  hmi_driver.o(i.Display_Message)
    i.Display_String                         0x08000af8   Section        0  hmi_driver.o(i.Display_String)
    i.END_CMD                                0x08000b78   Section        0  hmi_driver.o(i.END_CMD)
    i.EXTI10_15_IRQHandler                   0x08000b90   Section        0  gd32f4xx_it.o(i.EXTI10_15_IRQHandler)
    i.EleSwCtrl                              0x08000bb0   Section        0  devctrl.o(i.EleSwCtrl)
    i.FlowCtrl                               0x08000c48   Section        0  app.o(i.FlowCtrl)
    i.Flow_Init                              0x08000c94   Section        0  app.o(i.Flow_Init)
    i.GUI_RectangleFill                      0x08000cb4   Section        0  hmi_driver.o(i.GUI_RectangleFill)
    i.GetCapture                             0x08000d18   Section        0  timer.o(i.GetCapture)
    i.GetEditValue                           0x08000d20   Section        0  hmi_driver.o(i.GetEditValue)
    i.GetFlow                                0x08000d44   Section        0  sensor.o(i.GetFlow)
    i.GetInOut                               0x08000e58   Section        0  inout.o(i.GetInOut)
    i.GetModbusPack                          0x08000e60   Section        0  sensor.o(i.GetModbusPack)
    i.GetModbusSens                          0x08000e68   Section        0  sensor.o(i.GetModbusSens)
    i.GetPH_ORP                              0x08000f50   Section        0  sensor.o(i.GetPH_ORP)
    i.GetSensor                              0x08001140   Section        0  sensor.o(i.GetSensor)
    i.GetStrLen                              0x08001148   Section        0  hmi_driver.o(i.GetStrLen)
    i.GetTds_EleCurr                         0x0800115c   Section        0  sensor.o(i.GetTds_EleCurr)
    i.GetTickResult                          0x080016a0   Section        0  sys.o(i.GetTickResult)
    i.GetTickStatus                          0x080016ac   Section        0  sys.o(i.GetTickStatus)
    i.GetTouchEditValue                      0x080016b8   Section        0  hmi_driver.o(i.GetTouchEditValue)
    i.GetWaterLevel                          0x080016dc   Section        0  sensor.o(i.GetWaterLevel)
    i.HAL_GetTick                            0x080017d0   Section        0  sys.o(i.HAL_GetTick)
    i.HAL_TIM_IC_CaptureCallback             0x080017dc   Section        0  timer.o(i.HAL_TIM_IC_CaptureCallback)
    i.HardFault_Handler                      0x080017e4   Section        0  gd32f4xx_it.o(i.HardFault_Handler)
    i.IRcvByte                               0x080017e8   Section        0  i2c.o(i.IRcvByte)
    i.ISendByte                              0x0800181c   Section        0  i2c.o(i.ISendByte)
    i.MX_GPIO_Init                           0x08001868   Section        0  main.o(i.MX_GPIO_Init)
    MX_GPIO_Init                             0x08001869   Thumb Code   406  main.o(i.MX_GPIO_Init)
    i.MX_TIM1_Init                           0x08001a14   Section        0  main.o(i.MX_TIM1_Init)
    MX_TIM1_Init                             0x08001a15   Thumb Code   160  main.o(i.MX_TIM1_Init)
    i.MX_TIM3_Init                           0x08001ab8   Section        0  main.o(i.MX_TIM3_Init)
    MX_TIM3_Init                             0x08001ab9   Thumb Code   132  main.o(i.MX_TIM3_Init)
    i.MX_TIM4_Init                           0x08001b40   Section        0  main.o(i.MX_TIM4_Init)
    MX_TIM4_Init                             0x08001b41   Thumb Code   346  main.o(i.MX_TIM4_Init)
    i.MX_UART4_Init                          0x08001ca4   Section        0  main.o(i.MX_UART4_Init)
    MX_UART4_Init                            0x08001ca5   Thumb Code   118  main.o(i.MX_UART4_Init)
    i.MX_USART1_UART_Init                    0x08001d24   Section        0  main.o(i.MX_USART1_UART_Init)
    MX_USART1_UART_Init                      0x08001d25   Thumb Code   130  main.o(i.MX_USART1_UART_Init)
    i.MX_USART2_UART_Init                    0x08001db0   Section        0  main.o(i.MX_USART2_UART_Init)
    MX_USART2_UART_Init                      0x08001db1   Thumb Code   128  main.o(i.MX_USART2_UART_Init)
    i.MX_USART3_UART_Init                    0x08001e38   Section        0  main.o(i.MX_USART3_UART_Init)
    MX_USART3_UART_Init                      0x08001e39   Thumb Code   130  main.o(i.MX_USART3_UART_Init)
    i.MX_USART6_UART_Init                    0x08001ec4   Section        0  main.o(i.MX_USART6_UART_Init)
    MX_USART6_UART_Init                      0x08001ec5   Thumb Code   154  main.o(i.MX_USART6_UART_Init)
    i.MemManage_Handler                      0x08001f68   Section        0  gd32f4xx_it.o(i.MemManage_Handler)
    i.Modbus_03_Solve                        0x08001f6c   Section        0  modbus.o(i.Modbus_03_Solve)
    i.Modbus_06_Solve                        0x08001fdc   Section        0  modbus.o(i.Modbus_06_Solve)
    i.Modbus_16_Solve                        0x08001fe0   Section        0  modbus.o(i.Modbus_16_Solve)
    i.Modbus_Pack                            0x08001fe4   Section        0  modbus.o(i.Modbus_Pack)
    i.NMI_Handler                            0x0800216c   Section        0  gd32f4xx_it.o(i.NMI_Handler)
    i.NVIC_SetPriority                       0x08002170   Section        0  sys.o(i.NVIC_SetPriority)
    NVIC_SetPriority                         0x08002171   Thumb Code    32  sys.o(i.NVIC_SetPriority)
    i.NotifyGetCheckbox                      0x08002198   Section        0  app_lcd.o(i.NotifyGetCheckbox)
    i.NotifyGetEdit                          0x080021ac   Section        0  app_lcd.o(i.NotifyGetEdit)
    i.NotifyGetPage                          0x080021f8   Section        0  app_lcd.o(i.NotifyGetPage)
    i.NotifyGetSlider                        0x08002208   Section        0  app_lcd.o(i.NotifyGetSlider)
    i.NotifyGetTouchEdit                     0x08002218   Section        0  app_lcd.o(i.NotifyGetTouchEdit)
    i.NotifySetPage                          0x08002264   Section        0  app_lcd.o(i.NotifySetPage)
    i.NotifyTouchButton                      0x0800227c   Section        0  app_lcd.o(i.NotifyTouchButton)
    i.NotifyTouchCheckbox                    0x080022d0   Section        0  app_lcd.o(i.NotifyTouchCheckbox)
    i.NotifyTouchEdit                        0x080022e4   Section        0  app_lcd.o(i.NotifyTouchEdit)
    i.NotifyTouchSlider                      0x08002310   Section        0  app_lcd.o(i.NotifyTouchSlider)
    i.PIDCalc                                0x08002340   Section        0  pid.o(i.PIDCalc)
    i.PIDInit                                0x08002588   Section        0  pid.o(i.PIDInit)
    i.PendSV_Handler                         0x08002596   Section        0  gd32f4xx_it.o(i.PendSV_Handler)
    i.ProcessMessage                         0x08002598   Section        0  app_lcd.o(i.ProcessMessage)
    i.RS485_RxCpltCallback                   0x0800267c   Section        0  modbus.o(i.RS485_RxCpltCallback)
    i.RS485_SendData                         0x080026f8   Section        0  modbus.o(i.RS485_SendData)
    i.RS485_Service                          0x08002750   Section        0  modbus.o(i.RS485_Service)
    i.RcvByte                                0x08002818   Section        0  i2c.o(i.RcvByte)
    i.SVC_Handler                            0x080028a0   Section        0  gd32f4xx_it.o(i.SVC_Handler)
    i.SendByte                               0x080028a4   Section        0  i2c.o(i.SendByte)
    i.SendStrings                            0x0800296c   Section        0  hmi_driver.o(i.SendStrings)
    i.SetBackLight                           0x08002982   Section        0  hmi_driver.o(i.SetBackLight)
    i.SetBarGaugeValue                       0x0800299c   Section        0  hmi_driver.o(i.SetBarGaugeValue)
    i.SetBatteryValue                        0x080029cc   Section        0  hmi_driver.o(i.SetBatteryValue)
    i.SetCircleGaugeValue                    0x080029fc   Section        0  hmi_driver.o(i.SetCircleGaugeValue)
    i.SetLableValue                          0x08002a2c   Section        0  hmi_driver.o(i.SetLableValue)
    i.SetNumberValue                         0x08002a62   Section        0  hmi_driver.o(i.SetNumberValue)
    i.SetPage                                0x08002a92   Section        0  hmi_driver.o(i.SetPage)
    i.SetProgressbarValue                    0x08002aac   Section        0  hmi_driver.o(i.SetProgressbarValue)
    i.SetReset                               0x08002ad6   Section        0  hmi_driver.o(i.SetReset)
    i.SetThermometerValue                    0x08002b06   Section        0  hmi_driver.o(i.SetThermometerValue)
    i.SetWaterGaugeValue                     0x08002b36   Section        0  hmi_driver.o(i.SetWaterGaugeValue)
    i.SetWaveformValue                       0x08002b66   Section        0  hmi_driver.o(i.SetWaveformValue)
    i.Soft_Reset                             0x08002b9c   Section        0  inout.o(i.Soft_Reset)
    i.Start_I2c                              0x08002bd0   Section        0  i2c.o(i.Start_I2c)
    i.Stop_I2c                               0x08002c38   Section        0  i2c.o(i.Stop_I2c)
    i.SysTick_Handler                        0x08002c88   Section        0  gd32f4xx_it.o(i.SysTick_Handler)
    i.SystemInit                             0x08002ca0   Section        0  system_gd32f4xx.o(i.SystemInit)
    i.TIM3CaptureChannel3Callback            0x08002d58   Section        0  timer.o(i.TIM3CaptureChannel3Callback)
    i.TIMER2_IRQHandler                      0x08002e28   Section        0  gd32f4xx_it.o(i.TIMER2_IRQHandler)
    i.TickPro                                0x08002e40   Section        0  sys.o(i.TickPro)
    i.TickTimeoutAb                          0x08002e80   Section        0  app.o(i.TickTimeoutAb)
    i.TickTimeoutNor                         0x08002ec6   Section        0  app.o(i.TickTimeoutNor)
    i.USART5_IRQHandler                      0x08002f30   Section        0  gd32f4xx_it.o(i.USART5_IRQHandler)
    i.UpdateUI                               0x08002f58   Section        0  app_lcd.o(i.UpdateUI)
    i.UsageFault_Handler                     0x080031d8   Section        0  gd32f4xx_it.o(i.UsageFault_Handler)
    i._Nop                                   0x080031dc   Section        0  i2c.o(i._Nop)
    i.__0printf                              0x080031ec   Section        0  printfa.o(i.__0printf)
    i.__0sprintf                             0x0800320c   Section        0  printfa.o(i.__0sprintf)
    i.__ARM_fpclassify                       0x08003234   Section        0  fpclassify.o(i.__ARM_fpclassify)
    i.__hardfp_sin                           0x08003268   Section        0  sin.o(i.__hardfp_sin)
    i.__ieee754_rem_pio2                     0x08003330   Section        0  rred.o(i.__ieee754_rem_pio2)
    i.__kernel_cos                           0x08003768   Section        0  cos_i.o(i.__kernel_cos)
    i.__kernel_poly                          0x080038d8   Section        0  poly.o(i.__kernel_poly)
    i.__kernel_sin                           0x080039d0   Section        0  sin_i.o(i.__kernel_sin)
    i.__mathlib_dbl_infnan                   0x08003b00   Section        0  dunder.o(i.__mathlib_dbl_infnan)
    i.__mathlib_dbl_invalid                  0x08003b18   Section        0  dunder.o(i.__mathlib_dbl_invalid)
    i.__mathlib_dbl_underflow                0x08003b38   Section        0  dunder.o(i.__mathlib_dbl_underflow)
    i.__scatterload_copy                     0x08003b58   Section       14  handlers.o(i.__scatterload_copy)
    i.__scatterload_null                     0x08003b66   Section        2  handlers.o(i.__scatterload_null)
    i.__scatterload_zeroinit                 0x08003b68   Section       14  handlers.o(i.__scatterload_zeroinit)
    i.__set_errno                            0x08003b78   Section        0  errno.o(i.__set_errno)
    i._fp_digits                             0x08003b84   Section        0  printfa.o(i._fp_digits)
    _fp_digits                               0x08003b85   Thumb Code   366  printfa.o(i._fp_digits)
    i._printf_core                           0x08003d08   Section        0  printfa.o(i._printf_core)
    _printf_core                             0x08003d09   Thumb Code  1744  printfa.o(i._printf_core)
    i._printf_post_padding                   0x080043e4   Section        0  printfa.o(i._printf_post_padding)
    _printf_post_padding                     0x080043e5   Thumb Code    36  printfa.o(i._printf_post_padding)
    i._printf_pre_padding                    0x08004408   Section        0  printfa.o(i._printf_pre_padding)
    _printf_pre_padding                      0x08004409   Thumb Code    46  printfa.o(i._printf_pre_padding)
    i._sputc                                 0x08004436   Section        0  printfa.o(i._sputc)
    _sputc                                   0x08004437   Thumb Code    10  printfa.o(i._sputc)
    i.abnormalDec                            0x08004440   Section        0  app.o(i.abnormalDec)
    i.adc_calibration_enable                 0x08004708   Section        0  gd32f4xx_adc.o(i.adc_calibration_enable)
    i.adc_channel_16_to_18                   0x08004734   Section        0  gd32f4xx_adc.o(i.adc_channel_16_to_18)
    i.adc_channel_length_config              0x08004794   Section        0  gd32f4xx_adc.o(i.adc_channel_length_config)
    i.adc_channel_sample                     0x080047e8   Section        0  sensor.o(i.adc_channel_sample)
    i.adc_clock_config                       0x08004824   Section        0  gd32f4xx_adc.o(i.adc_clock_config)
    i.adc_config                             0x08004848   Section        0  main.o(i.adc_config)
    i.adc_data_alignment_config              0x08004914   Section        0  gd32f4xx_adc.o(i.adc_data_alignment_config)
    i.adc_deinit                             0x0800492a   Section        0  gd32f4xx_adc.o(i.adc_deinit)
    i.adc_enable                             0x0800493e   Section        0  gd32f4xx_adc.o(i.adc_enable)
    i.adc_external_trigger_config            0x08004950   Section        0  gd32f4xx_adc.o(i.adc_external_trigger_config)
    i.adc_external_trigger_source_config     0x08004984   Section        0  gd32f4xx_adc.o(i.adc_external_trigger_source_config)
    i.adc_flag_clear                         0x080049b4   Section        0  gd32f4xx_adc.o(i.adc_flag_clear)
    i.adc_flag_get                           0x080049bc   Section        0  gd32f4xx_adc.o(i.adc_flag_get)
    i.adc_inserted_channel_config            0x080049ca   Section        0  gd32f4xx_adc.o(i.adc_inserted_channel_config)
    i.adc_inserted_data_read                 0x08004a46   Section        0  gd32f4xx_adc.o(i.adc_inserted_data_read)
    i.adc_regular_channel_config             0x08004a74   Section        0  gd32f4xx_adc.o(i.adc_regular_channel_config)
    i.adc_regular_data_read                  0x08004b20   Section        0  gd32f4xx_adc.o(i.adc_regular_data_read)
    i.adc_software_trigger_enable            0x08004b28   Section        0  gd32f4xx_adc.o(i.adc_software_trigger_enable)
    i.adc_special_function_config            0x08004b4c   Section        0  gd32f4xx_adc.o(i.adc_special_function_config)
    i.adc_sync_mode_config                   0x08004ba8   Section        0  gd32f4xx_adc.o(i.adc_sync_mode_config)
    i.app                                    0x08004bcc   Section        0  app.o(i.app)
    i.bsp_SetTIMOutPWM                       0x08004bd4   Section        0  bsp_beep.o(i.bsp_SetTIMOutPWM)
    i.calibration_sensors                    0x08004d40   Section        0  sensor.o(i.calibration_sensors)
    i.delay_ms                               0x0800503c   Section        0  sys.o(i.delay_ms)
    i.delay_us                               0x08005054   Section        0  sys.o(i.delay_us)
    i.dma_channel_enable                     0x0800506c   Section        0  gd32f4xx_dma.o(i.dma_channel_enable)
    i.dma_channel_subperipheral_select       0x0800508c   Section        0  gd32f4xx_dma.o(i.dma_channel_subperipheral_select)
    i.dma_circulation_disable                0x080050b2   Section        0  gd32f4xx_dma.o(i.dma_circulation_disable)
    i.dma_config                             0x080050d4   Section        0  main.o(i.dma_config)
    i.dma_deinit                             0x0800518c   Section        0  gd32f4xx_dma.o(i.dma_deinit)
    i.dma_interrupt_enable                   0x08005230   Section        0  gd32f4xx_dma.o(i.dma_interrupt_enable)
    i.dma_interrupt_flag_clear               0x0800526e   Section        0  gd32f4xx_dma.o(i.dma_interrupt_flag_clear)
    i.dma_interrupt_flag_get                 0x080052ac   Section        0  gd32f4xx_dma.o(i.dma_interrupt_flag_get)
    i.dma_single_data_mode_init              0x080054b0   Section        0  gd32f4xx_dma.o(i.dma_single_data_mode_init)
    i.ele_dev_proc                           0x08005608   Section        0  app.o(i.ele_dev_proc)
    i.ele_process                            0x080057dc   Section        0  app.o(i.ele_process)
    i.exti_init                              0x08005870   Section        0  gd32f4xx_exti.o(i.exti_init)
    i.exti_interrupt_flag_clear              0x0800592c   Section        0  gd32f4xx_exti.o(i.exti_interrupt_flag_clear)
    i.exti_interrupt_flag_get                0x08005938   Section        0  gd32f4xx_exti.o(i.exti_interrupt_flag_get)
    i.fabs                                   0x0800595c   Section        0  fabs.o(i.fabs)
    i.fill_pro                               0x08005974   Section        0  app.o(i.fill_pro)
    i.fputc                                  0x08005998   Section        0  sys.o(i.fputc)
    i.getQueue                               0x080059c4   Section        0  cmd_queue.o(i.getQueue)
    i.getTouch                               0x080059cc   Section        0  inout.o(i.getTouch)
    i.getuiCallback                          0x080059d4   Section        0  app_lcd.o(i.getuiCallback)
    i.gpio_af_set                            0x080059dc   Section        0  gd32f4xx_gpio.o(i.gpio_af_set)
    i.gpio_bit_reset                         0x08005a3a   Section        0  gd32f4xx_gpio.o(i.gpio_bit_reset)
    i.gpio_bit_set                           0x08005a3e   Section        0  gd32f4xx_gpio.o(i.gpio_bit_set)
    i.gpio_bit_write                         0x08005a42   Section        0  gd32f4xx_gpio.o(i.gpio_bit_write)
    i.gpio_config                            0x08005a4c   Section        0  main.o(i.gpio_config)
    i.gpio_input_bit_get                     0x08005ac0   Section        0  gd32f4xx_gpio.o(i.gpio_input_bit_get)
    i.gpio_mode_set                          0x08005ad0   Section        0  gd32f4xx_gpio.o(i.gpio_mode_set)
    i.gpio_output_options_set                0x08005b1e   Section        0  gd32f4xx_gpio.o(i.gpio_output_options_set)
    i.lcd_boot                               0x08005b60   Section        0  app_lcd.o(i.lcd_boot)
    i.lcd_init                               0x08005c68   Section        0  app_lcd.o(i.lcd_init)
    i.lcd_proc                               0x08005ca4   Section        0  app.o(i.lcd_proc)
    i.lcd_touch_interrupt                    0x0800611c   Section        0  app_lcd.o(i.lcd_touch_interrupt)
    i.main                                   0x08006360   Section        0  main.o(i.main)
    i.module_anlysis                         0x080063c8   Section        0  sensor.o(i.module_anlysis)
    i.module_dis_proc                        0x0800657c   Section        0  app.o(i.module_dis_proc)
    i.module_reset                           0x08006664   Section        0  app.o(i.module_reset)
    i.nvic_config                            0x080066b2   Section        0  main.o(i.nvic_config)
    i.nvic_irq_enable                        0x080066f0   Section        0  gd32f4xx_misc.o(i.nvic_irq_enable)
    i.nvic_priority_group_set                0x080067b4   Section        0  gd32f4xx_misc.o(i.nvic_priority_group_set)
    i.orp_ph_process                         0x080067c8   Section        0  sensor.o(i.orp_ph_process)
    i.pid_init                               0x080068d8   Section        0  pid.o(i.pid_init)
    i.pid_proc                               0x08006954   Section        0  pid.o(i.pid_proc)
    i.queue_clear                            0x08006998   Section        0  cmd_queue.o(i.queue_clear)
    i.queue_find_cmd                         0x080069bc   Section        0  cmd_queue.o(i.queue_find_cmd)
    i.queue_pop                              0x08006ab8   Section        0  cmd_queue.o(i.queue_pop)
    queue_pop                                0x08006ab9   Thumb Code    48  cmd_queue.o(i.queue_pop)
    i.queue_push                             0x08006aec   Section        0  cmd_queue.o(i.queue_push)
    i.queue_reset                            0x08006b1c   Section        0  cmd_queue.o(i.queue_reset)
    i.queue_size                             0x08006b34   Section        0  cmd_queue.o(i.queue_size)
    queue_size                               0x08006b35   Thumb Code    28  cmd_queue.o(i.queue_size)
    i.rcu_clock_freq_get                     0x08006b54   Section        0  gd32f4xx_rcu.o(i.rcu_clock_freq_get)
    i.rcu_config                             0x08006c78   Section        0  main.o(i.rcu_config)
    i.rcu_periph_clock_enable                0x08006cac   Section        0  gd32f4xx_rcu.o(i.rcu_periph_clock_enable)
    i.rcu_periph_reset_disable               0x08006cd0   Section        0  gd32f4xx_rcu.o(i.rcu_periph_reset_disable)
    i.rcu_periph_reset_enable                0x08006cf4   Section        0  gd32f4xx_rcu.o(i.rcu_periph_reset_enable)
    i.rcu_timer_clock_prescaler_config       0x08006d18   Section        0  gd32f4xx_rcu.o(i.rcu_timer_clock_prescaler_config)
    i.reboot_progress                        0x08006d3c   Section        0  app_lcd.o(i.reboot_progress)
    i.registerTick                           0x08006d54   Section        0  sys.o(i.registerTick)
    i.sensor_process                         0x08006dc0   Section        0  sensor.o(i.sensor_process)
    i.syscfg_exti_line_config                0x08006dd4   Section        0  gd32f4xx_syscfg.o(i.syscfg_exti_line_config)
    i.system_clock_120m_irc16m               0x08006e80   Section        0  system_gd32f4xx.o(i.system_clock_120m_irc16m)
    system_clock_120m_irc16m                 0x08006e81   Thumb Code   238  system_gd32f4xx.o(i.system_clock_120m_irc16m)
    i.system_clock_config                    0x08006f7c   Section        0  system_gd32f4xx.o(i.system_clock_config)
    system_clock_config                      0x08006f7d   Thumb Code     8  system_gd32f4xx.o(i.system_clock_config)
    i.systick_config                         0x08006f84   Section        0  sys.o(i.systick_config)
    i.timer_auto_reload_shadow_enable        0x08006fd4   Section        0  gd32f4xx_timer.o(i.timer_auto_reload_shadow_enable)
    i.timer_channel_capture_value_register_read 0x08006fde   Section        0  gd32f4xx_timer.o(i.timer_channel_capture_value_register_read)
    i.timer_channel_input_capture_prescaler_config 0x08007008   Section        0  gd32f4xx_timer.o(i.timer_channel_input_capture_prescaler_config)
    i.timer_channel_output_config            0x08007064   Section        0  gd32f4xx_timer.o(i.timer_channel_output_config)
    i.timer_channel_output_mode_config       0x08007250   Section        0  gd32f4xx_timer.o(i.timer_channel_output_mode_config)
    i.timer_channel_output_pulse_value_config 0x080072aa   Section        0  gd32f4xx_timer.o(i.timer_channel_output_pulse_value_config)
    i.timer_channel_output_shadow_config     0x080072d0   Section        0  gd32f4xx_timer.o(i.timer_channel_output_shadow_config)
    i.timer_deinit                           0x0800732c   Section        0  gd32f4xx_timer.o(i.timer_deinit)
    i.timer_enable                           0x080074b0   Section        0  gd32f4xx_timer.o(i.timer_enable)
    i.timer_init                             0x080074bc   Section        0  gd32f4xx_timer.o(i.timer_init)
    i.timer_input_capture_config             0x08007554   Section        0  gd32f4xx_timer.o(i.timer_input_capture_config)
    i.timer_interrupt_enable                 0x0800769a   Section        0  gd32f4xx_timer.o(i.timer_interrupt_enable)
    i.timer_interrupt_flag_clear             0x080076a2   Section        0  gd32f4xx_timer.o(i.timer_interrupt_flag_clear)
    i.timer_interrupt_flag_get               0x080076a8   Section        0  gd32f4xx_timer.o(i.timer_interrupt_flag_get)
    i.timer_primary_output_config            0x080076c0   Section        0  gd32f4xx_timer.o(i.timer_primary_output_config)
    i.touch_pro                              0x080076d8   Section        0  inout.o(i.touch_pro)
    i.usart_baudrate_set                     0x08007808   Section        0  gd32f4xx_usart.o(i.usart_baudrate_set)
    i.usart_data_receive                     0x080078f0   Section        0  gd32f4xx_usart.o(i.usart_data_receive)
    i.usart_data_transmit                    0x080078fa   Section        0  gd32f4xx_usart.o(i.usart_data_transmit)
    i.usart_deinit                           0x08007904   Section        0  gd32f4xx_usart.o(i.usart_deinit)
    i.usart_dma_receive_config               0x080079e0   Section        0  gd32f4xx_usart.o(i.usart_dma_receive_config)
    i.usart_dma_transmit_config              0x080079f0   Section        0  gd32f4xx_usart.o(i.usart_dma_transmit_config)
    i.usart_enable                           0x08007a00   Section        0  gd32f4xx_usart.o(i.usart_enable)
    i.usart_flag_get                         0x08007a0a   Section        0  gd32f4xx_usart.o(i.usart_flag_get)
    i.usart_interrupt_enable                 0x08007a28   Section        0  gd32f4xx_usart.o(i.usart_interrupt_enable)
    i.usart_interrupt_flag_clear             0x08007a42   Section        0  gd32f4xx_usart.o(i.usart_interrupt_flag_clear)
    i.usart_interrupt_flag_get               0x08007a5c   Section        0  gd32f4xx_usart.o(i.usart_interrupt_flag_get)
    i.usart_receive_config                   0x08007a94   Section        0  gd32f4xx_usart.o(i.usart_receive_config)
    i.usart_transmit_config                  0x08007aa4   Section        0  gd32f4xx_usart.o(i.usart_transmit_config)
    i.work_process                           0x08007ab4   Section        0  app.o(i.work_process)
    .constdata                               0x08007ad8   Section      448  sensor.o(.constdata)
    .constdata                               0x08007c98   Section       72  app_lcd.o(.constdata)
    .constdata                               0x08007ce0   Section      512  crc.o(.constdata)
    .constdata                               0x08007ee0   Section       48  cos_i.o(.constdata)
    C                                        0x08007ee0   Data          48  cos_i.o(.constdata)
    .constdata                               0x08007f10   Section      200  rred.o(.constdata)
    pio2s                                    0x08007f10   Data          48  rred.o(.constdata)
    twooverpi                                0x08007f40   Data         152  rred.o(.constdata)
    .constdata                               0x08007fd8   Section       40  sin_i.o(.constdata)
    S                                        0x08007fd8   Data          40  sin_i.o(.constdata)
    .data                                    0x20000000   Section        8  gd32f4xx_it.o(.data)
    .data                                    0x20000008   Section        4  system_gd32f4xx.o(.data)
    .data                                    0x2000000c   Section        1  hmi_driver.o(.data)
    len                                      0x2000000c   Data           1  hmi_driver.o(.data)
    .data                                    0x2000000d   Section        1  i2c.o(.data)
    .data                                    0x20000010   Section       43  sensor.o(.data)
    result                                   0x20000014   Data           1  sensor.o(.data)
    result                                   0x20000018   Data           4  sensor.o(.data)
    averTds                                  0x2000001c   Data           4  sensor.o(.data)
    averTds2                                 0x20000020   Data           4  sensor.o(.data)
    init                                     0x20000024   Data           1  sensor.o(.data)
    flow_tmp                                 0x20000028   Data           4  sensor.o(.data)
    init_flag                                0x2000002c   Data           4  sensor.o(.data)
    flow_tick                                0x20000030   Data           4  sensor.o(.data)
    addr_tmp                                 0x20000034   Data           1  sensor.o(.data)
    state                                    0x20000035   Data           1  sensor.o(.data)
    status                                   0x20000036   Data           1  sensor.o(.data)
    tx_buf                                   0x20000037   Data           2  sensor.o(.data)
    addr_tmp                                 0x20000039   Data           1  sensor.o(.data)
    tx_count                                 0x2000003a   Data           1  sensor.o(.data)
    .data                                    0x2000003c   Section       26  timer.o(.data)
    .data                                    0x20000058   Section       19  app.o(.data)
    pwm1                                     0x20000060   Data           4  app.o(.data)
    pwm2                                     0x20000064   Data           4  app.o(.data)
    status                                   0x20000068   Data           1  app.o(.data)
    status_tmp                               0x20000069   Data           1  app.o(.data)
    i                                        0x2000006a   Data           1  app.o(.data)
    .data                                    0x2000006c   Section       19  app_lcd.o(.data)
    update_en                                0x20000074   Data           1  app_lcd.o(.data)
    page_Id_bk                               0x20000075   Data           1  app_lcd.o(.data)
    page_Id                                  0x20000076   Data           1  app_lcd.o(.data)
    targe_Id                                 0x20000077   Data           1  app_lcd.o(.data)
    value                                    0x2000007d   Data           1  app_lcd.o(.data)
    init_lcd                                 0x2000007e   Data           1  app_lcd.o(.data)
    .data                                    0x20000080   Section        5  cmd_queue.o(.data)
    cmd_pos                                  0x20000080   Data           2  cmd_queue.o(.data)
    _length                                  0x20000082   Data           1  cmd_queue.o(.data)
    cmd_backup                               0x20000083   Data           1  cmd_queue.o(.data)
    cmd_length                               0x20000084   Data           1  cmd_queue.o(.data)
    .data                                    0x20000085   Section       11  inout.o(.data)
    send_time                                0x2000008f   Data           1  inout.o(.data)
    .data                                    0x20000090   Section       13  modbus.o(.data)
    .data                                    0x200000a0   Section       24  pid.o(.data)
    last_result                              0x200000b0   Data           8  pid.o(.data)
    .data                                    0x200000b8   Section        8  sys.o(.data)
    .data                                    0x200000c0   Section        4  errno.o(.data)
    _errno                                   0x200000c0   Data           4  errno.o(.data)
    .bss                                     0x200000c4   Section       16  bsp_beep.o(.bss)
    g_tBeep                                  0x200000c4   Data          16  bsp_beep.o(.bss)
    .bss                                     0x200000d4   Section       64  hmi_driver.o(.bss)
    sendbuf                                  0x200000d4   Data          64  hmi_driver.o(.bss)
    .bss                                     0x20000114   Section      240  sensor.o(.bss)
    modbus_cali                              0x200001c8   Data          60  sensor.o(.bss)
    .bss                                     0x20000204   Section       65  app_lcd.o(.bss)
    .bss                                     0x20000246   Section      132  cmd_queue.o(.bss)
    que                                      0x20000246   Data         132  cmd_queue.o(.bss)
    .bss                                     0x200002cc   Section       60  inout.o(.bss)
    .bss                                     0x20000308   Section      284  modbus.o(.bss)
    .bss                                     0x20000428   Section       56  pid.o(.bss)
    .bss                                     0x20000460   Section      168  sys.o(.bss)
    STACK                                    0x20000508   Section     1024  startup_gd32f450.o(STACK)

    Global Symbols

    Symbol Name                              Value     Ov Type        Size  Object(Section)

    BuildAttributes$$THM_ISAv4$E$P$D$K$B$S$7EM$VFPi3$EXTD16$VFPS$VFMA$PE$A:L22UL41UL21$X:L11$S22US41US21$IEEE1$IW$USESV6$~STKCKD$USESV7$~SHL$OTIME$ROPI$IEEEX$EBA8$MICROLIB$REQ8$PRES8$EABIv2 0x00000000   Number         0  anon$$obj.o ABSOLUTE
    __ARM_use_no_argv                        0x00000000   Number         0  main.o ABSOLUTE
    _printf_a                                0x00000000   Number         0  stubs.o ABSOLUTE
    _printf_c                                0x00000000   Number         0  stubs.o ABSOLUTE
    _printf_charcount                        0x00000000   Number         0  stubs.o ABSOLUTE
    _printf_d                                0x00000000   Number         0  stubs.o ABSOLUTE
    _printf_e                                0x00000000   Number         0  stubs.o ABSOLUTE
    _printf_f                                0x00000000   Number         0  stubs.o ABSOLUTE
    _printf_flags                            0x00000000   Number         0  stubs.o ABSOLUTE
    _printf_fp_dec                           0x00000000   Number         0  stubs.o ABSOLUTE
    _printf_fp_hex                           0x00000000   Number         0  stubs.o ABSOLUTE
    _printf_g                                0x00000000   Number         0  stubs.o ABSOLUTE
    _printf_i                                0x00000000   Number         0  stubs.o ABSOLUTE
    _printf_int_dec                          0x00000000   Number         0  stubs.o ABSOLUTE
    _printf_l                                0x00000000   Number         0  stubs.o ABSOLUTE
    _printf_lc                               0x00000000   Number         0  stubs.o ABSOLUTE
    _printf_ll                               0x00000000   Number         0  stubs.o ABSOLUTE
    _printf_lld                              0x00000000   Number         0  stubs.o ABSOLUTE
    _printf_lli                              0x00000000   Number         0  stubs.o ABSOLUTE
    _printf_llo                              0x00000000   Number         0  stubs.o ABSOLUTE
    _printf_llu                              0x00000000   Number         0  stubs.o ABSOLUTE
    _printf_llx                              0x00000000   Number         0  stubs.o ABSOLUTE
    _printf_longlong_dec                     0x00000000   Number         0  stubs.o ABSOLUTE
    _printf_longlong_hex                     0x00000000   Number         0  stubs.o ABSOLUTE
    _printf_longlong_oct                     0x00000000   Number         0  stubs.o ABSOLUTE
    _printf_ls                               0x00000000   Number         0  stubs.o ABSOLUTE
    _printf_mbtowc                           0x00000000   Number         0  stubs.o ABSOLUTE
    _printf_n                                0x00000000   Number         0  stubs.o ABSOLUTE
    _printf_o                                0x00000000   Number         0  stubs.o ABSOLUTE
    _printf_p                                0x00000000   Number         0  stubs.o ABSOLUTE
    _printf_percent                          0x00000000   Number         0  stubs.o ABSOLUTE
    _printf_pre_padding                      0x00000000   Number         0  stubs.o ABSOLUTE
    _printf_return_value                     0x00000000   Number         0  stubs.o ABSOLUTE
    _printf_s                                0x00000000   Number         0  stubs.o ABSOLUTE
    _printf_sizespec                         0x00000000   Number         0  stubs.o ABSOLUTE
    _printf_str                              0x00000000   Number         0  stubs.o ABSOLUTE
    _printf_truncate_signed                  0x00000000   Number         0  stubs.o ABSOLUTE
    _printf_truncate_unsigned                0x00000000   Number         0  stubs.o ABSOLUTE
    _printf_u                                0x00000000   Number         0  stubs.o ABSOLUTE
    _printf_wc                               0x00000000   Number         0  stubs.o ABSOLUTE
    _printf_wctomb                           0x00000000   Number         0  stubs.o ABSOLUTE
    _printf_widthprec                        0x00000000   Number         0  stubs.o ABSOLUTE
    _printf_x                                0x00000000   Number         0  stubs.o ABSOLUTE
    __cpp_initialize__aeabi_                  - Undefined Weak Reference
    __cxa_finalize                            - Undefined Weak Reference
    __decompress                              - Undefined Weak Reference
    _clock_init                               - Undefined Weak Reference
    _microlib_exit                            - Undefined Weak Reference
    __Vectors_Size                           0x000001ac   Number         0  startup_gd32f450.o ABSOLUTE
    __Vectors                                0x08000000   Data           4  startup_gd32f450.o(RESET)
    __Vectors_End                            0x080001ac   Data           0  startup_gd32f450.o(RESET)
    __main                                   0x080001ad   Thumb Code     0  entry.o(.ARM.Collect$$$$00000000)
    _main_stk                                0x080001ad   Thumb Code     0  entry2.o(.ARM.Collect$$$$00000001)
    _main_scatterload                        0x080001b1   Thumb Code     0  entry5.o(.ARM.Collect$$$$00000004)
    __main_after_scatterload                 0x080001b5   Thumb Code     0  entry5.o(.ARM.Collect$$$$00000004)
    _main_clock                              0x080001b5   Thumb Code     0  entry7b.o(.ARM.Collect$$$$00000008)
    _main_cpp_init                           0x080001b5   Thumb Code     0  entry8b.o(.ARM.Collect$$$$0000000A)
    _main_init                               0x080001b5   Thumb Code     0  entry9a.o(.ARM.Collect$$$$0000000B)
    __rt_final_cpp                           0x080001bd   Thumb Code     0  entry10a.o(.ARM.Collect$$$$0000000D)
    __rt_final_exit                          0x080001bd   Thumb Code     0  entry11a.o(.ARM.Collect$$$$0000000F)
    Reset_Handler                            0x080001c1   Thumb Code     8  startup_gd32f450.o(.text)
    ADC_IRQHandler                           0x080001db   Thumb Code     0  startup_gd32f450.o(.text)
    CAN0_EWMC_IRQHandler                     0x080001db   Thumb Code     0  startup_gd32f450.o(.text)
    CAN0_RX0_IRQHandler                      0x080001db   Thumb Code     0  startup_gd32f450.o(.text)
    CAN0_RX1_IRQHandler                      0x080001db   Thumb Code     0  startup_gd32f450.o(.text)
    CAN0_TX_IRQHandler                       0x080001db   Thumb Code     0  startup_gd32f450.o(.text)
    CAN1_EWMC_IRQHandler                     0x080001db   Thumb Code     0  startup_gd32f450.o(.text)
    CAN1_RX0_IRQHandler                      0x080001db   Thumb Code     0  startup_gd32f450.o(.text)
    CAN1_RX1_IRQHandler                      0x080001db   Thumb Code     0  startup_gd32f450.o(.text)
    CAN1_TX_IRQHandler                       0x080001db   Thumb Code     0  startup_gd32f450.o(.text)
    DCI_IRQHandler                           0x080001db   Thumb Code     0  startup_gd32f450.o(.text)
    DMA0_Channel0_IRQHandler                 0x080001db   Thumb Code     0  startup_gd32f450.o(.text)
    DMA0_Channel1_IRQHandler                 0x080001db   Thumb Code     0  startup_gd32f450.o(.text)
    DMA0_Channel2_IRQHandler                 0x080001db   Thumb Code     0  startup_gd32f450.o(.text)
    DMA0_Channel3_IRQHandler                 0x080001db   Thumb Code     0  startup_gd32f450.o(.text)
    DMA0_Channel4_IRQHandler                 0x080001db   Thumb Code     0  startup_gd32f450.o(.text)
    DMA0_Channel5_IRQHandler                 0x080001db   Thumb Code     0  startup_gd32f450.o(.text)
    DMA0_Channel6_IRQHandler                 0x080001db   Thumb Code     0  startup_gd32f450.o(.text)
    DMA0_Channel7_IRQHandler                 0x080001db   Thumb Code     0  startup_gd32f450.o(.text)
    DMA1_Channel0_IRQHandler                 0x080001db   Thumb Code     0  startup_gd32f450.o(.text)
    DMA1_Channel1_IRQHandler                 0x080001db   Thumb Code     0  startup_gd32f450.o(.text)
    DMA1_Channel3_IRQHandler                 0x080001db   Thumb Code     0  startup_gd32f450.o(.text)
    DMA1_Channel4_IRQHandler                 0x080001db   Thumb Code     0  startup_gd32f450.o(.text)
    DMA1_Channel5_IRQHandler                 0x080001db   Thumb Code     0  startup_gd32f450.o(.text)
    DMA1_Channel6_IRQHandler                 0x080001db   Thumb Code     0  startup_gd32f450.o(.text)
    ENET_IRQHandler                          0x080001db   Thumb Code     0  startup_gd32f450.o(.text)
    ENET_WKUP_IRQHandler                     0x080001db   Thumb Code     0  startup_gd32f450.o(.text)
    EXMC_IRQHandler                          0x080001db   Thumb Code     0  startup_gd32f450.o(.text)
    EXTI0_IRQHandler                         0x080001db   Thumb Code     0  startup_gd32f450.o(.text)
    EXTI1_IRQHandler                         0x080001db   Thumb Code     0  startup_gd32f450.o(.text)
    EXTI2_IRQHandler                         0x080001db   Thumb Code     0  startup_gd32f450.o(.text)
    EXTI3_IRQHandler                         0x080001db   Thumb Code     0  startup_gd32f450.o(.text)
    EXTI4_IRQHandler                         0x080001db   Thumb Code     0  startup_gd32f450.o(.text)
    EXTI5_9_IRQHandler                       0x080001db   Thumb Code     0  startup_gd32f450.o(.text)
    FMC_IRQHandler                           0x080001db   Thumb Code     0  startup_gd32f450.o(.text)
    FPU_IRQHandler                           0x080001db   Thumb Code     0  startup_gd32f450.o(.text)
    I2C0_ER_IRQHandler                       0x080001db   Thumb Code     0  startup_gd32f450.o(.text)
    I2C0_EV_IRQHandler                       0x080001db   Thumb Code     0  startup_gd32f450.o(.text)
    I2C1_ER_IRQHandler                       0x080001db   Thumb Code     0  startup_gd32f450.o(.text)
    I2C1_EV_IRQHandler                       0x080001db   Thumb Code     0  startup_gd32f450.o(.text)
    I2C2_ER_IRQHandler                       0x080001db   Thumb Code     0  startup_gd32f450.o(.text)
    I2C2_EV_IRQHandler                       0x080001db   Thumb Code     0  startup_gd32f450.o(.text)
    IPA_IRQHandler                           0x080001db   Thumb Code     0  startup_gd32f450.o(.text)
    LVD_IRQHandler                           0x080001db   Thumb Code     0  startup_gd32f450.o(.text)
    RCU_CTC_IRQHandler                       0x080001db   Thumb Code     0  startup_gd32f450.o(.text)
    RTC_Alarm_IRQHandler                     0x080001db   Thumb Code     0  startup_gd32f450.o(.text)
    RTC_WKUP_IRQHandler                      0x080001db   Thumb Code     0  startup_gd32f450.o(.text)
    SDIO_IRQHandler                          0x080001db   Thumb Code     0  startup_gd32f450.o(.text)
    SPI0_IRQHandler                          0x080001db   Thumb Code     0  startup_gd32f450.o(.text)
    SPI1_IRQHandler                          0x080001db   Thumb Code     0  startup_gd32f450.o(.text)
    SPI2_IRQHandler                          0x080001db   Thumb Code     0  startup_gd32f450.o(.text)
    SPI3_IRQHandler                          0x080001db   Thumb Code     0  startup_gd32f450.o(.text)
    SPI4_IRQHandler                          0x080001db   Thumb Code     0  startup_gd32f450.o(.text)
    SPI5_IRQHandler                          0x080001db   Thumb Code     0  startup_gd32f450.o(.text)
    TAMPER_STAMP_IRQHandler                  0x080001db   Thumb Code     0  startup_gd32f450.o(.text)
    TIMER0_BRK_TIMER8_IRQHandler             0x080001db   Thumb Code     0  startup_gd32f450.o(.text)
    TIMER0_Channel_IRQHandler                0x080001db   Thumb Code     0  startup_gd32f450.o(.text)
    TIMER0_TRG_CMT_TIMER10_IRQHandler        0x080001db   Thumb Code     0  startup_gd32f450.o(.text)
    TIMER0_UP_TIMER9_IRQHandler              0x080001db   Thumb Code     0  startup_gd32f450.o(.text)
    TIMER1_IRQHandler                        0x080001db   Thumb Code     0  startup_gd32f450.o(.text)
    TIMER3_IRQHandler                        0x080001db   Thumb Code     0  startup_gd32f450.o(.text)
    TIMER4_IRQHandler                        0x080001db   Thumb Code     0  startup_gd32f450.o(.text)
    TIMER5_DAC_IRQHandler                    0x080001db   Thumb Code     0  startup_gd32f450.o(.text)
    TIMER6_IRQHandler                        0x080001db   Thumb Code     0  startup_gd32f450.o(.text)
    TIMER7_BRK_TIMER11_IRQHandler            0x080001db   Thumb Code     0  startup_gd32f450.o(.text)
    TIMER7_Channel_IRQHandler                0x080001db   Thumb Code     0  startup_gd32f450.o(.text)
    TIMER7_TRG_CMT_TIMER13_IRQHandler        0x080001db   Thumb Code     0  startup_gd32f450.o(.text)
    TIMER7_UP_TIMER12_IRQHandler             0x080001db   Thumb Code     0  startup_gd32f450.o(.text)
    TLI_ER_IRQHandler                        0x080001db   Thumb Code     0  startup_gd32f450.o(.text)
    TLI_IRQHandler                           0x080001db   Thumb Code     0  startup_gd32f450.o(.text)
    TRNG_IRQHandler                          0x080001db   Thumb Code     0  startup_gd32f450.o(.text)
    UART3_IRQHandler                         0x080001db   Thumb Code     0  startup_gd32f450.o(.text)
    UART4_IRQHandler                         0x080001db   Thumb Code     0  startup_gd32f450.o(.text)
    UART6_IRQHandler                         0x080001db   Thumb Code     0  startup_gd32f450.o(.text)
    UART7_IRQHandler                         0x080001db   Thumb Code     0  startup_gd32f450.o(.text)
    USART0_IRQHandler                        0x080001db   Thumb Code     0  startup_gd32f450.o(.text)
    USART1_IRQHandler                        0x080001db   Thumb Code     0  startup_gd32f450.o(.text)
    USART2_IRQHandler                        0x080001db   Thumb Code     0  startup_gd32f450.o(.text)
    USBFS_IRQHandler                         0x080001db   Thumb Code     0  startup_gd32f450.o(.text)
    USBFS_WKUP_IRQHandler                    0x080001db   Thumb Code     0  startup_gd32f450.o(.text)
    USBHS_EP1_In_IRQHandler                  0x080001db   Thumb Code     0  startup_gd32f450.o(.text)
    USBHS_EP1_Out_IRQHandler                 0x080001db   Thumb Code     0  startup_gd32f450.o(.text)
    USBHS_IRQHandler                         0x080001db   Thumb Code     0  startup_gd32f450.o(.text)
    USBHS_WKUP_IRQHandler                    0x080001db   Thumb Code     0  startup_gd32f450.o(.text)
    WWDGT_IRQHandler                         0x080001db   Thumb Code     0  startup_gd32f450.o(.text)
    __aeabi_memcpy                           0x080001e5   Thumb Code    36  memcpya.o(.text)
    __aeabi_memcpy4                          0x080001e5   Thumb Code     0  memcpya.o(.text)
    __aeabi_memcpy8                          0x080001e5   Thumb Code     0  memcpya.o(.text)
    __aeabi_memset                           0x08000209   Thumb Code    14  memseta.o(.text)
    __aeabi_memset4                          0x08000209   Thumb Code     0  memseta.o(.text)
    __aeabi_memset8                          0x08000209   Thumb Code     0  memseta.o(.text)
    __aeabi_memclr                           0x08000217   Thumb Code     4  memseta.o(.text)
    __aeabi_memclr4                          0x08000217   Thumb Code     0  memseta.o(.text)
    __aeabi_memclr8                          0x08000217   Thumb Code     0  memseta.o(.text)
    _memset$wrapper                          0x0800021b   Thumb Code    18  memseta.o(.text)
    strlen                                   0x0800022d   Thumb Code    14  strlen.o(.text)
    __aeabi_dadd                             0x0800023b   Thumb Code   322  dadd.o(.text)
    __aeabi_dsub                             0x0800037d   Thumb Code     6  dadd.o(.text)
    __aeabi_drsub                            0x08000383   Thumb Code     6  dadd.o(.text)
    __aeabi_dmul                             0x08000389   Thumb Code   228  dmul.o(.text)
    __aeabi_ddiv                             0x0800046d   Thumb Code   222  ddiv.o(.text)
    __aeabi_i2d                              0x0800054b   Thumb Code    34  dflti.o(.text)
    __aeabi_ui2d                             0x0800056d   Thumb Code    26  dfltui.o(.text)
    __aeabi_d2iz                             0x08000587   Thumb Code    62  dfixi.o(.text)
    __aeabi_d2uiz                            0x080005c5   Thumb Code    50  dfixui.o(.text)
    __aeabi_f2d                              0x080005f7   Thumb Code    38  f2d.o(.text)
    __aeabi_cdcmpeq                          0x0800061d   Thumb Code     0  cdcmple.o(.text)
    __aeabi_cdcmple                          0x0800061d   Thumb Code    48  cdcmple.o(.text)
    __aeabi_cdrcmple                         0x0800064d   Thumb Code    48  cdrcmple.o(.text)
    __aeabi_d2f                              0x0800067d   Thumb Code    56  d2f.o(.text)
    __aeabi_uidiv                            0x080006b5   Thumb Code     0  uidiv.o(.text)
    __aeabi_uidivmod                         0x080006b5   Thumb Code    44  uidiv.o(.text)
    __aeabi_uldivmod                         0x080006e1   Thumb Code    98  uldiv.o(.text)
    __aeabi_llsl                             0x08000743   Thumb Code    30  llshl.o(.text)
    _ll_shift_l                              0x08000743   Thumb Code     0  llshl.o(.text)
    __aeabi_llsr                             0x08000761   Thumb Code    32  llushr.o(.text)
    _ll_ushift_r                             0x08000761   Thumb Code     0  llushr.o(.text)
    __aeabi_lasr                             0x08000781   Thumb Code    36  llsshr.o(.text)
    _ll_sshift_r                             0x08000781   Thumb Code     0  llsshr.o(.text)
    __I$use$fp                               0x080007a5   Thumb Code     0  iusefp.o(.text)
    _float_round                             0x080007a5   Thumb Code    18  fepilogue.o(.text)
    _float_epilogue                          0x080007b7   Thumb Code    92  fepilogue.o(.text)
    _double_round                            0x08000813   Thumb Code    30  depilogue.o(.text)
    _double_epilogue                         0x08000831   Thumb Code   156  depilogue.o(.text)
    __aeabi_d2ulz                            0x080008cd   Thumb Code    48  dfixul.o(.text)
    __scatterload                            0x080008fd   Thumb Code    28  init.o(.text)
    __scatterload_rt2                        0x080008fd   Thumb Code     0  init.o(.text)
    ADD_DATA                                 0x08000921   Thumb Code    18  hmi_driver.o(i.ADD_DATA)
    Ack_I2c                                  0x0800093d   Thumb Code    94  i2c.o(i.Ack_I2c)
    BEEP_Start                               0x080009a1   Thumb Code    56  bsp_beep.o(i.BEEP_Start)
    BEGIN_CMD                                0x080009dd   Thumb Code     8  hmi_driver.o(i.BEGIN_CMD)
    BusFault_Handler                         0x080009e9   Thumb Code     4  gd32f4xx_it.o(i.BusFault_Handler)
    CRC_Compute                              0x080009ed   Thumb Code    46  crc.o(i.CRC_Compute)
    DMA1_Channel2_IRQHandler                 0x08000a25   Thumb Code    24  gd32f4xx_it.o(i.DMA1_Channel2_IRQHandler)
    DMA1_Channel7_IRQHandler                 0x08000a41   Thumb Code    26  gd32f4xx_it.o(i.DMA1_Channel7_IRQHandler)
    DcMotorCtrl                              0x08000a61   Thumb Code    92  devctrl.o(i.DcMotorCtrl)
    DebugMon_Handler                         0x08000ac1   Thumb Code     2  gd32f4xx_it.o(i.DebugMon_Handler)
    Display_Message                          0x08000ac3   Thumb Code    54  hmi_driver.o(i.Display_Message)
    Display_String                           0x08000af9   Thumb Code   128  hmi_driver.o(i.Display_String)
    END_CMD                                  0x08000b79   Thumb Code    16  hmi_driver.o(i.END_CMD)
    EXTI10_15_IRQHandler                     0x08000b91   Thumb Code    30  gd32f4xx_it.o(i.EXTI10_15_IRQHandler)
    EleSwCtrl                                0x08000bb1   Thumb Code   144  devctrl.o(i.EleSwCtrl)
    FlowCtrl                                 0x08000c49   Thumb Code    68  app.o(i.FlowCtrl)
    Flow_Init                                0x08000c95   Thumb Code    26  app.o(i.Flow_Init)
    GUI_RectangleFill                        0x08000cb5   Thumb Code    98  hmi_driver.o(i.GUI_RectangleFill)
    GetCapture                               0x08000d19   Thumb Code     4  timer.o(i.GetCapture)
    GetEditValue                             0x08000d21   Thumb Code    34  hmi_driver.o(i.GetEditValue)
    GetFlow                                  0x08000d45   Thumb Code   254  sensor.o(i.GetFlow)
    GetInOut                                 0x08000e59   Thumb Code     4  inout.o(i.GetInOut)
    GetModbusPack                            0x08000e61   Thumb Code     4  sensor.o(i.GetModbusPack)
    GetModbusSens                            0x08000e69   Thumb Code   226  sensor.o(i.GetModbusSens)
    GetPH_ORP                                0x08000f51   Thumb Code   486  sensor.o(i.GetPH_ORP)
    GetSensor                                0x08001141   Thumb Code     4  sensor.o(i.GetSensor)
    GetStrLen                                0x08001149   Thumb Code    20  hmi_driver.o(i.GetStrLen)
    GetTds_EleCurr                           0x0800115d   Thumb Code  1286  sensor.o(i.GetTds_EleCurr)
    GetTickResult                            0x080016a1   Thumb Code     8  sys.o(i.GetTickResult)
    GetTickStatus                            0x080016ad   Thumb Code     8  sys.o(i.GetTickStatus)
    GetTouchEditValue                        0x080016b9   Thumb Code    34  hmi_driver.o(i.GetTouchEditValue)
    GetWaterLevel                            0x080016dd   Thumb Code   224  sensor.o(i.GetWaterLevel)
    HAL_GetTick                              0x080017d1   Thumb Code     6  sys.o(i.HAL_GetTick)
    HAL_TIM_IC_CaptureCallback               0x080017dd   Thumb Code     8  timer.o(i.HAL_TIM_IC_CaptureCallback)
    HardFault_Handler                        0x080017e5   Thumb Code     4  gd32f4xx_it.o(i.HardFault_Handler)
    IRcvByte                                 0x080017e9   Thumb Code    46  i2c.o(i.IRcvByte)
    ISendByte                                0x0800181d   Thumb Code    70  i2c.o(i.ISendByte)
    MemManage_Handler                        0x08001f69   Thumb Code     4  gd32f4xx_it.o(i.MemManage_Handler)
    Modbus_03_Solve                          0x08001f6d   Thumb Code   108  modbus.o(i.Modbus_03_Solve)
    Modbus_06_Solve                          0x08001fdd   Thumb Code     4  modbus.o(i.Modbus_06_Solve)
    Modbus_16_Solve                          0x08001fe1   Thumb Code     4  modbus.o(i.Modbus_16_Solve)
    Modbus_Pack                              0x08001fe5   Thumb Code   382  modbus.o(i.Modbus_Pack)
    NMI_Handler                              0x0800216d   Thumb Code     2  gd32f4xx_it.o(i.NMI_Handler)
    NotifyGetCheckbox                        0x08002199   Thumb Code    16  app_lcd.o(i.NotifyGetCheckbox)
    NotifyGetEdit                            0x080021ad   Thumb Code    68  app_lcd.o(i.NotifyGetEdit)
    NotifyGetPage                            0x080021f9   Thumb Code    10  app_lcd.o(i.NotifyGetPage)
    NotifyGetSlider                          0x08002209   Thumb Code    12  app_lcd.o(i.NotifyGetSlider)
    NotifyGetTouchEdit                       0x08002219   Thumb Code    68  app_lcd.o(i.NotifyGetTouchEdit)
    NotifySetPage                            0x08002265   Thumb Code    14  app_lcd.o(i.NotifySetPage)
    NotifyTouchButton                        0x0800227d   Thumb Code    72  app_lcd.o(i.NotifyTouchButton)
    NotifyTouchCheckbox                      0x080022d1   Thumb Code    16  app_lcd.o(i.NotifyTouchCheckbox)
    NotifyTouchEdit                          0x080022e5   Thumb Code    36  app_lcd.o(i.NotifyTouchEdit)
    NotifyTouchSlider                        0x08002311   Thumb Code    38  app_lcd.o(i.NotifyTouchSlider)
    PIDCalc                                  0x08002341   Thumb Code   538  pid.o(i.PIDCalc)
    PIDInit                                  0x08002589   Thumb Code    14  pid.o(i.PIDInit)
    PendSV_Handler                           0x08002597   Thumb Code     2  gd32f4xx_it.o(i.PendSV_Handler)
    ProcessMessage                           0x08002599   Thumb Code   224  app_lcd.o(i.ProcessMessage)
    RS485_RxCpltCallback                     0x0800267d   Thumb Code   110  modbus.o(i.RS485_RxCpltCallback)
    RS485_SendData                           0x080026f9   Thumb Code    76  modbus.o(i.RS485_SendData)
    RS485_Service                            0x08002751   Thumb Code   188  modbus.o(i.RS485_Service)
    RcvByte                                  0x08002819   Thumb Code   132  i2c.o(i.RcvByte)
    SVC_Handler                              0x080028a1   Thumb Code     2  gd32f4xx_it.o(i.SVC_Handler)
    SendByte                                 0x080028a5   Thumb Code   192  i2c.o(i.SendByte)
    SendStrings                              0x0800296d   Thumb Code    22  hmi_driver.o(i.SendStrings)
    SetBackLight                             0x08002983   Thumb Code    26  hmi_driver.o(i.SetBackLight)
    SetBarGaugeValue                         0x0800299d   Thumb Code    48  hmi_driver.o(i.SetBarGaugeValue)
    SetBatteryValue                          0x080029cd   Thumb Code    48  hmi_driver.o(i.SetBatteryValue)
    SetCircleGaugeValue                      0x080029fd   Thumb Code    48  hmi_driver.o(i.SetCircleGaugeValue)
    SetLableValue                            0x08002a2d   Thumb Code    54  hmi_driver.o(i.SetLableValue)
    SetNumberValue                           0x08002a63   Thumb Code    48  hmi_driver.o(i.SetNumberValue)
    SetPage                                  0x08002a93   Thumb Code    26  hmi_driver.o(i.SetPage)
    SetProgressbarValue                      0x08002aad   Thumb Code    42  hmi_driver.o(i.SetProgressbarValue)
    SetReset                                 0x08002ad7   Thumb Code    48  hmi_driver.o(i.SetReset)
    SetThermometerValue                      0x08002b07   Thumb Code    48  hmi_driver.o(i.SetThermometerValue)
    SetWaterGaugeValue                       0x08002b37   Thumb Code    48  hmi_driver.o(i.SetWaterGaugeValue)
    SetWaveformValue                         0x08002b67   Thumb Code    54  hmi_driver.o(i.SetWaveformValue)
    Soft_Reset                               0x08002b9d   Thumb Code    42  inout.o(i.Soft_Reset)
    Start_I2c                                0x08002bd1   Thumb Code   100  i2c.o(i.Start_I2c)
    Stop_I2c                                 0x08002c39   Thumb Code    76  i2c.o(i.Stop_I2c)
    SysTick_Handler                          0x08002c89   Thumb Code    18  gd32f4xx_it.o(i.SysTick_Handler)
    SystemInit                               0x08002ca1   Thumb Code   168  system_gd32f4xx.o(i.SystemInit)
    TIM3CaptureChannel3Callback              0x08002d59   Thumb Code   176  timer.o(i.TIM3CaptureChannel3Callback)
    TIMER2_IRQHandler                        0x08002e29   Thumb Code    18  gd32f4xx_it.o(i.TIMER2_IRQHandler)
    TickPro                                  0x08002e41   Thumb Code    58  sys.o(i.TickPro)
    TickTimeoutAb                            0x08002e81   Thumb Code    70  app.o(i.TickTimeoutAb)
    TickTimeoutNor                           0x08002ec7   Thumb Code   104  app.o(i.TickTimeoutNor)
    USART5_IRQHandler                        0x08002f31   Thumb Code    32  gd32f4xx_it.o(i.USART5_IRQHandler)
    UpdateUI                                 0x08002f59   Thumb Code   614  app_lcd.o(i.UpdateUI)
    UsageFault_Handler                       0x080031d9   Thumb Code     4  gd32f4xx_it.o(i.UsageFault_Handler)
    _Nop                                     0x080031dd   Thumb Code    14  i2c.o(i._Nop)
    __0printf                                0x080031ed   Thumb Code    22  printfa.o(i.__0printf)
    __1printf                                0x080031ed   Thumb Code     0  printfa.o(i.__0printf)
    __2printf                                0x080031ed   Thumb Code     0  printfa.o(i.__0printf)
    __c89printf                              0x080031ed   Thumb Code     0  printfa.o(i.__0printf)
    printf                                   0x080031ed   Thumb Code     0  printfa.o(i.__0printf)
    __0sprintf                               0x0800320d   Thumb Code    34  printfa.o(i.__0sprintf)
    __1sprintf                               0x0800320d   Thumb Code     0  printfa.o(i.__0sprintf)
    __2sprintf                               0x0800320d   Thumb Code     0  printfa.o(i.__0sprintf)
    __c89sprintf                             0x0800320d   Thumb Code     0  printfa.o(i.__0sprintf)
    sprintf                                  0x0800320d   Thumb Code     0  printfa.o(i.__0sprintf)
    __ARM_fpclassify                         0x08003235   Thumb Code    48  fpclassify.o(i.__ARM_fpclassify)
    __hardfp_sin                             0x08003269   Thumb Code   180  sin.o(i.__hardfp_sin)
    __ieee754_rem_pio2                       0x08003331   Thumb Code   938  rred.o(i.__ieee754_rem_pio2)
    __kernel_cos                             0x08003769   Thumb Code   322  cos_i.o(i.__kernel_cos)
    __kernel_poly                            0x080038d9   Thumb Code   248  poly.o(i.__kernel_poly)
    __kernel_sin                             0x080039d1   Thumb Code   280  sin_i.o(i.__kernel_sin)
    __mathlib_dbl_infnan                     0x08003b01   Thumb Code    20  dunder.o(i.__mathlib_dbl_infnan)
    __mathlib_dbl_invalid                    0x08003b19   Thumb Code    24  dunder.o(i.__mathlib_dbl_invalid)
    __mathlib_dbl_underflow                  0x08003b39   Thumb Code    24  dunder.o(i.__mathlib_dbl_underflow)
    __scatterload_copy                       0x08003b59   Thumb Code    14  handlers.o(i.__scatterload_copy)
    __scatterload_null                       0x08003b67   Thumb Code     2  handlers.o(i.__scatterload_null)
    __scatterload_zeroinit                   0x08003b69   Thumb Code    14  handlers.o(i.__scatterload_zeroinit)
    __set_errno                              0x08003b79   Thumb Code     6  errno.o(i.__set_errno)
    abnormalDec                              0x08004441   Thumb Code   678  app.o(i.abnormalDec)
    adc_calibration_enable                   0x08004709   Thumb Code    42  gd32f4xx_adc.o(i.adc_calibration_enable)
    adc_channel_16_to_18                     0x08004735   Thumb Code    86  gd32f4xx_adc.o(i.adc_channel_16_to_18)
    adc_channel_length_config                0x08004795   Thumb Code    82  gd32f4xx_adc.o(i.adc_channel_length_config)
    adc_channel_sample                       0x080047e9   Thumb Code    54  sensor.o(i.adc_channel_sample)
    adc_clock_config                         0x08004825   Thumb Code    28  gd32f4xx_adc.o(i.adc_clock_config)
    adc_config                               0x08004849   Thumb Code   198  main.o(i.adc_config)
    adc_data_alignment_config                0x08004915   Thumb Code    22  gd32f4xx_adc.o(i.adc_data_alignment_config)
    adc_deinit                               0x0800492b   Thumb Code    20  gd32f4xx_adc.o(i.adc_deinit)
    adc_enable                               0x0800493f   Thumb Code    18  gd32f4xx_adc.o(i.adc_enable)
    adc_external_trigger_config              0x08004951   Thumb Code    52  gd32f4xx_adc.o(i.adc_external_trigger_config)
    adc_external_trigger_source_config       0x08004985   Thumb Code    48  gd32f4xx_adc.o(i.adc_external_trigger_source_config)
    adc_flag_clear                           0x080049b5   Thumb Code     8  gd32f4xx_adc.o(i.adc_flag_clear)
    adc_flag_get                             0x080049bd   Thumb Code    14  gd32f4xx_adc.o(i.adc_flag_get)
    adc_inserted_channel_config              0x080049cb   Thumb Code   124  gd32f4xx_adc.o(i.adc_inserted_channel_config)
    adc_inserted_data_read                   0x08004a47   Thumb Code    46  gd32f4xx_adc.o(i.adc_inserted_data_read)
    adc_regular_channel_config               0x08004a75   Thumb Code   172  gd32f4xx_adc.o(i.adc_regular_channel_config)
    adc_regular_data_read                    0x08004b21   Thumb Code     8  gd32f4xx_adc.o(i.adc_regular_data_read)
    adc_software_trigger_enable              0x08004b29   Thumb Code    36  gd32f4xx_adc.o(i.adc_software_trigger_enable)
    adc_special_function_config              0x08004b4d   Thumb Code    90  gd32f4xx_adc.o(i.adc_special_function_config)
    adc_sync_mode_config                     0x08004ba9   Thumb Code    28  gd32f4xx_adc.o(i.adc_sync_mode_config)
    app                                      0x08004bcd   Thumb Code     8  app.o(i.app)
    bsp_SetTIMOutPWM                         0x08004bd5   Thumb Code   352  bsp_beep.o(i.bsp_SetTIMOutPWM)
    calibration_sensors                      0x08004d41   Thumb Code   750  sensor.o(i.calibration_sensors)
    delay_ms                                 0x0800503d   Thumb Code    18  sys.o(i.delay_ms)
    delay_us                                 0x08005055   Thumb Code    24  sys.o(i.delay_us)
    dma_channel_enable                       0x0800506d   Thumb Code    32  gd32f4xx_dma.o(i.dma_channel_enable)
    dma_channel_subperipheral_select         0x0800508d   Thumb Code    38  gd32f4xx_dma.o(i.dma_channel_subperipheral_select)
    dma_circulation_disable                  0x080050b3   Thumb Code    32  gd32f4xx_dma.o(i.dma_circulation_disable)
    dma_config                               0x080050d5   Thumb Code   166  main.o(i.dma_config)
    dma_deinit                               0x0800518d   Thumb Code   164  gd32f4xx_dma.o(i.dma_deinit)
    dma_interrupt_enable                     0x08005231   Thumb Code    62  gd32f4xx_dma.o(i.dma_interrupt_enable)
    dma_interrupt_flag_clear                 0x0800526f   Thumb Code    62  gd32f4xx_dma.o(i.dma_interrupt_flag_clear)
    dma_interrupt_flag_get                   0x080052ad   Thumb Code   516  gd32f4xx_dma.o(i.dma_interrupt_flag_get)
    dma_single_data_mode_init                0x080054b1   Thumb Code   340  gd32f4xx_dma.o(i.dma_single_data_mode_init)
    ele_dev_proc                             0x08005609   Thumb Code   460  app.o(i.ele_dev_proc)
    ele_process                              0x080057dd   Thumb Code   142  app.o(i.ele_process)
    exti_init                                0x08005871   Thumb Code   184  gd32f4xx_exti.o(i.exti_init)
    exti_interrupt_flag_clear                0x0800592d   Thumb Code     6  gd32f4xx_exti.o(i.exti_interrupt_flag_clear)
    exti_interrupt_flag_get                  0x08005939   Thumb Code    32  gd32f4xx_exti.o(i.exti_interrupt_flag_get)
    fabs                                     0x0800595d   Thumb Code    24  fabs.o(i.fabs)
    fill_pro                                 0x08005975   Thumb Code    36  app.o(i.fill_pro)
    fputc                                    0x08005999   Thumb Code    40  sys.o(i.fputc)
    getQueue                                 0x080059c5   Thumb Code     4  cmd_queue.o(i.getQueue)
    getTouch                                 0x080059cd   Thumb Code     4  inout.o(i.getTouch)
    getuiCallback                            0x080059d5   Thumb Code     4  app_lcd.o(i.getuiCallback)
    gpio_af_set                              0x080059dd   Thumb Code    94  gd32f4xx_gpio.o(i.gpio_af_set)
    gpio_bit_reset                           0x08005a3b   Thumb Code     4  gd32f4xx_gpio.o(i.gpio_bit_reset)
    gpio_bit_set                             0x08005a3f   Thumb Code     4  gd32f4xx_gpio.o(i.gpio_bit_set)
    gpio_bit_write                           0x08005a43   Thumb Code    10  gd32f4xx_gpio.o(i.gpio_bit_write)
    gpio_config                              0x08005a4d   Thumb Code   102  main.o(i.gpio_config)
    gpio_input_bit_get                       0x08005ac1   Thumb Code    16  gd32f4xx_gpio.o(i.gpio_input_bit_get)
    gpio_mode_set                            0x08005ad1   Thumb Code    78  gd32f4xx_gpio.o(i.gpio_mode_set)
    gpio_output_options_set                  0x08005b1f   Thumb Code    66  gd32f4xx_gpio.o(i.gpio_output_options_set)
    lcd_boot                                 0x08005b61   Thumb Code   226  app_lcd.o(i.lcd_boot)
    lcd_init                                 0x08005c69   Thumb Code    50  app_lcd.o(i.lcd_init)
    lcd_proc                                 0x08005ca5   Thumb Code   976  app.o(i.lcd_proc)
    lcd_touch_interrupt                      0x0800611d   Thumb Code   558  app_lcd.o(i.lcd_touch_interrupt)
    main                                     0x08006361   Thumb Code   100  main.o(i.main)
    module_anlysis                           0x080063c9   Thumb Code   418  sensor.o(i.module_anlysis)
    module_dis_proc                          0x0800657d   Thumb Code   210  app.o(i.module_dis_proc)
    module_reset                             0x08006665   Thumb Code    78  app.o(i.module_reset)
    nvic_config                              0x080066b3   Thumb Code    60  main.o(i.nvic_config)
    nvic_irq_enable                          0x080066f1   Thumb Code   186  gd32f4xx_misc.o(i.nvic_irq_enable)
    nvic_priority_group_set                  0x080067b5   Thumb Code    10  gd32f4xx_misc.o(i.nvic_priority_group_set)
    orp_ph_process                           0x080067c9   Thumb Code   256  sensor.o(i.orp_ph_process)
    pid_init                                 0x080068d9   Thumb Code    86  pid.o(i.pid_init)
    pid_proc                                 0x08006955   Thumb Code    54  pid.o(i.pid_proc)
    queue_clear                              0x08006999   Thumb Code    26  cmd_queue.o(i.queue_clear)
    queue_find_cmd                           0x080069bd   Thumb Code   238  cmd_queue.o(i.queue_find_cmd)
    queue_push                               0x08006aed   Thumb Code    44  cmd_queue.o(i.queue_push)
    queue_reset                              0x08006b1d   Thumb Code    14  cmd_queue.o(i.queue_reset)
    rcu_clock_freq_get                       0x08006b55   Thumb Code   264  gd32f4xx_rcu.o(i.rcu_clock_freq_get)
    rcu_config                               0x08006c79   Thumb Code    52  main.o(i.rcu_config)
    rcu_periph_clock_enable                  0x08006cad   Thumb Code    32  gd32f4xx_rcu.o(i.rcu_periph_clock_enable)
    rcu_periph_reset_disable                 0x08006cd1   Thumb Code    32  gd32f4xx_rcu.o(i.rcu_periph_reset_disable)
    rcu_periph_reset_enable                  0x08006cf5   Thumb Code    32  gd32f4xx_rcu.o(i.rcu_periph_reset_enable)
    rcu_timer_clock_prescaler_config         0x08006d19   Thumb Code    32  gd32f4xx_rcu.o(i.rcu_timer_clock_prescaler_config)
    reboot_progress                          0x08006d3d   Thumb Code    22  app_lcd.o(i.reboot_progress)
    registerTick                             0x08006d55   Thumb Code   104  sys.o(i.registerTick)
    sensor_process                           0x08006dc1   Thumb Code    20  sensor.o(i.sensor_process)
    syscfg_exti_line_config                  0x08006dd5   Thumb Code   166  gd32f4xx_syscfg.o(i.syscfg_exti_line_config)
    systick_config                           0x08006f85   Thumb Code    74  sys.o(i.systick_config)
    timer_auto_reload_shadow_enable          0x08006fd5   Thumb Code    10  gd32f4xx_timer.o(i.timer_auto_reload_shadow_enable)
    timer_channel_capture_value_register_read 0x08006fdf   Thumb Code    42  gd32f4xx_timer.o(i.timer_channel_capture_value_register_read)
    timer_channel_input_capture_prescaler_config 0x08007009   Thumb Code    90  gd32f4xx_timer.o(i.timer_channel_input_capture_prescaler_config)
    timer_channel_output_config              0x08007065   Thumb Code   484  gd32f4xx_timer.o(i.timer_channel_output_config)
    timer_channel_output_mode_config         0x08007251   Thumb Code    90  gd32f4xx_timer.o(i.timer_channel_output_mode_config)
    timer_channel_output_pulse_value_config  0x080072ab   Thumb Code    38  gd32f4xx_timer.o(i.timer_channel_output_pulse_value_config)
    timer_channel_output_shadow_config       0x080072d1   Thumb Code    90  gd32f4xx_timer.o(i.timer_channel_output_shadow_config)
    timer_deinit                             0x0800732d   Thumb Code   374  gd32f4xx_timer.o(i.timer_deinit)
    timer_enable                             0x080074b1   Thumb Code    10  gd32f4xx_timer.o(i.timer_enable)
    timer_init                               0x080074bd   Thumb Code   122  gd32f4xx_timer.o(i.timer_init)
    timer_input_capture_config               0x08007555   Thumb Code   326  gd32f4xx_timer.o(i.timer_input_capture_config)
    timer_interrupt_enable                   0x0800769b   Thumb Code     8  gd32f4xx_timer.o(i.timer_interrupt_enable)
    timer_interrupt_flag_clear               0x080076a3   Thumb Code     6  gd32f4xx_timer.o(i.timer_interrupt_flag_clear)
    timer_interrupt_flag_get                 0x080076a9   Thumb Code    24  gd32f4xx_timer.o(i.timer_interrupt_flag_get)
    timer_primary_output_config              0x080076c1   Thumb Code    24  gd32f4xx_timer.o(i.timer_primary_output_config)
    touch_pro                                0x080076d9   Thumb Code   296  inout.o(i.touch_pro)
    usart_baudrate_set                       0x08007809   Thumb Code   224  gd32f4xx_usart.o(i.usart_baudrate_set)
    usart_data_receive                       0x080078f1   Thumb Code    10  gd32f4xx_usart.o(i.usart_data_receive)
    usart_data_transmit                      0x080078fb   Thumb Code     8  gd32f4xx_usart.o(i.usart_data_transmit)
    usart_deinit                             0x08007905   Thumb Code   210  gd32f4xx_usart.o(i.usart_deinit)
    usart_dma_receive_config                 0x080079e1   Thumb Code    16  gd32f4xx_usart.o(i.usart_dma_receive_config)
    usart_dma_transmit_config                0x080079f1   Thumb Code    16  gd32f4xx_usart.o(i.usart_dma_transmit_config)
    usart_enable                             0x08007a01   Thumb Code    10  gd32f4xx_usart.o(i.usart_enable)
    usart_flag_get                           0x08007a0b   Thumb Code    30  gd32f4xx_usart.o(i.usart_flag_get)
    usart_interrupt_enable                   0x08007a29   Thumb Code    26  gd32f4xx_usart.o(i.usart_interrupt_enable)
    usart_interrupt_flag_clear               0x08007a43   Thumb Code    26  gd32f4xx_usart.o(i.usart_interrupt_flag_clear)
    usart_interrupt_flag_get                 0x08007a5d   Thumb Code    56  gd32f4xx_usart.o(i.usart_interrupt_flag_get)
    usart_receive_config                     0x08007a95   Thumb Code    16  gd32f4xx_usart.o(i.usart_receive_config)
    usart_transmit_config                    0x08007aa5   Thumb Code    16  gd32f4xx_usart.o(i.usart_transmit_config)
    work_process                             0x08007ab5   Thumb Code    32  app.o(i.work_process)
    TDS_Test_Vaule                           0x08007ad8   Data         224  sensor.o(.constdata)
    TDS_Vaule                                0x08007bb8   Data         224  sensor.o(.constdata)
    String01                                 0x08007c98   Data          14  app_lcd.o(.constdata)
    String02                                 0x08007ca6   Data          14  app_lcd.o(.constdata)
    String03                                 0x08007cb4   Data          16  app_lcd.o(.constdata)
    String04                                 0x08007cc4   Data          14  app_lcd.o(.constdata)
    String05                                 0x08007cd2   Data          14  app_lcd.o(.constdata)
    auchCRCHi                                0x08007ce0   Data         256  crc.o(.constdata)
    auchCRCLo                                0x08007de0   Data         256  crc.o(.constdata)
    Region$$Table$$Base                      0x08008000   Number         0  anon$$obj.o(Region$$Table)
    Region$$Table$$Limit                     0x08008020   Number         0  anon$$obj.o(Region$$Table)
    sys_tick                                 0x20000000   Data           4  gd32f4xx_it.o(.data)
    count                                    0x20000004   Data           4  gd32f4xx_it.o(.data)
    SystemCoreClock                          0x20000008   Data           4  system_gd32f4xx.o(.data)
    ack                                      0x2000000d   Data           1  i2c.o(.data)
    tt                                       0x20000010   Data           4  sensor.o(.data)
    TIM3CH3_CAPTURE_STA                      0x2000003c   Data           1  timer.o(.data)
    TIM3CH3_CAPTURE_VAL                      0x20000040   Data           4  timer.o(.data)
    timecount                                0x20000044   Data           4  timer.o(.data)
    test                                     0x20000048   Data           4  timer.o(.data)
    timecount1                               0x2000004c   Data           4  timer.o(.data)
    fq                                       0x20000050   Data           4  timer.o(.data)
    state                                    0x20000054   Data           1  timer.o(.data)
    fq_flag                                  0x20000055   Data           1  timer.o(.data)
    work_params                              0x20000058   Data           2  app.o(.data)
    dstTds                                   0x2000005c   Data           4  app.o(.data)
    timer_tick_count                         0x2000006c   Data           4  app_lcd.o(.data)
    ui_usr                                   0x20000070   Data           4  app_lcd.o(.data)
    identifier                               0x20000078   Data           1  app_lcd.o(.data)
    cnt                                      0x20000079   Data           1  app_lcd.o(.data)
    command_cmd                              0x2000007a   Data           1  app_lcd.o(.data)
    command_statu                            0x2000007b   Data           1  app_lcd.o(.data)
    command_length                           0x2000007c   Data           1  app_lcd.o(.data)
    LED_Pilot                                0x20000085   Data           1  inout.o(.data)
    LED_Aper                                 0x20000086   Data           1  inout.o(.data)
    Speak_Flag                               0x20000087   Data           1  inout.o(.data)
    touch_usr                                0x20000088   Data           7  inout.o(.data)
    startRegAddr                             0x20000090   Data           4  modbus.o(.data)
    RegNum                                   0x20000094   Data           4  modbus.o(.data)
    calCRC                                   0x20000098   Data           4  modbus.o(.data)
    rxb                                      0x2000009c   Data           1  modbus.o(.data)
    rOut                                     0x200000a0   Data           8  pid.o(.data)
    rIn_PID                                  0x200000a8   Data           8  pid.o(.data)
    __stdout                                 0x200000b8   Data           4  sys.o(.data)
    delay                                    0x200000bc   Data           4  sys.o(.data)
    sensor                                   0x20000114   Data         108  sensor.o(.bss)
    adc1_val_buf                             0x20000180   Data          10  sensor.o(.bss)
    modbus_pack_usr                          0x2000018c   Data          60  sensor.o(.bss)
    cmd_buffer                               0x20000204   Data          65  app_lcd.o(.bss)
    LED_Ram                                  0x200002cc   Data          16  inout.o(.bss)
    inout_usr                                0x200002dc   Data          44  inout.o(.bss)
    modbus_usr                               0x20000308   Data         284  modbus.o(.bss)
    sPID                                     0x20000428   Data          56  pid.o(.bss)
    tick_usr                                 0x20000460   Data         168  sys.o(.bss)
    __initial_sp                             0x20000908   Data           0  startup_gd32f450.o(STACK)



==============================================================================

Memory Map of the image

  Image Entry point : 0x080001ad

  Load Region LR_IROM1 (Base: 0x08000000, Size: 0x000080e4, Max: 0x00100000, ABSOLUTE)

    Execution Region ER_IROM1 (Exec base: 0x08000000, Load base: 0x08000000, Size: 0x00008020, Max: 0x00100000, ABSOLUTE)

    Exec Addr    Load Addr    Size         Type   Attr      Idx    E Section Name        Object

    0x08000000   0x08000000   0x000001ac   Data   RO         5955    RESET               startup_gd32f450.o
    0x080001ac   0x080001ac   0x00000000   Code   RO         7452  * .ARM.Collect$$$$00000000  mc_w.l(entry.o)
    0x080001ac   0x080001ac   0x00000004   Code   RO         7774    .ARM.Collect$$$$00000001  mc_w.l(entry2.o)
    0x080001b0   0x080001b0   0x00000004   Code   RO         7777    .ARM.Collect$$$$00000004  mc_w.l(entry5.o)
    0x080001b4   0x080001b4   0x00000000   Code   RO         7779    .ARM.Collect$$$$00000008  mc_w.l(entry7b.o)
    0x080001b4   0x080001b4   0x00000000   Code   RO         7781    .ARM.Collect$$$$0000000A  mc_w.l(entry8b.o)
    0x080001b4   0x080001b4   0x00000008   Code   RO         7782    .ARM.Collect$$$$0000000B  mc_w.l(entry9a.o)
    0x080001bc   0x080001bc   0x00000000   Code   RO         7784    .ARM.Collect$$$$0000000D  mc_w.l(entry10a.o)
    0x080001bc   0x080001bc   0x00000000   Code   RO         7786    .ARM.Collect$$$$0000000F  mc_w.l(entry11a.o)
    0x080001bc   0x080001bc   0x00000004   Code   RO         7775    .ARM.Collect$$$$00002712  mc_w.l(entry2.o)
    0x080001c0   0x080001c0   0x00000024   Code   RO         5956    .text               startup_gd32f450.o
    0x080001e4   0x080001e4   0x00000024   Code   RO         7455    .text               mc_w.l(memcpya.o)
    0x08000208   0x08000208   0x00000024   Code   RO         7457    .text               mc_w.l(memseta.o)
    0x0800022c   0x0800022c   0x0000000e   Code   RO         7459    .text               mc_w.l(strlen.o)
    0x0800023a   0x0800023a   0x0000014e   Code   RO         7724    .text               mf_w.l(dadd.o)
    0x08000388   0x08000388   0x000000e4   Code   RO         7726    .text               mf_w.l(dmul.o)
    0x0800046c   0x0800046c   0x000000de   Code   RO         7728    .text               mf_w.l(ddiv.o)
    0x0800054a   0x0800054a   0x00000022   Code   RO         7730    .text               mf_w.l(dflti.o)
    0x0800056c   0x0800056c   0x0000001a   Code   RO         7732    .text               mf_w.l(dfltui.o)
    0x08000586   0x08000586   0x0000003e   Code   RO         7734    .text               mf_w.l(dfixi.o)
    0x080005c4   0x080005c4   0x00000032   Code   RO         7736    .text               mf_w.l(dfixui.o)
    0x080005f6   0x080005f6   0x00000026   Code   RO         7738    .text               mf_w.l(f2d.o)
    0x0800061c   0x0800061c   0x00000030   Code   RO         7740    .text               mf_w.l(cdcmple.o)
    0x0800064c   0x0800064c   0x00000030   Code   RO         7742    .text               mf_w.l(cdrcmple.o)
    0x0800067c   0x0800067c   0x00000038   Code   RO         7744    .text               mf_w.l(d2f.o)
    0x080006b4   0x080006b4   0x0000002c   Code   RO         7788    .text               mc_w.l(uidiv.o)
    0x080006e0   0x080006e0   0x00000062   Code   RO         7790    .text               mc_w.l(uldiv.o)
    0x08000742   0x08000742   0x0000001e   Code   RO         7792    .text               mc_w.l(llshl.o)
    0x08000760   0x08000760   0x00000020   Code   RO         7794    .text               mc_w.l(llushr.o)
    0x08000780   0x08000780   0x00000024   Code   RO         7796    .text               mc_w.l(llsshr.o)
    0x080007a4   0x080007a4   0x00000000   Code   RO         7805    .text               mc_w.l(iusefp.o)
    0x080007a4   0x080007a4   0x0000006e   Code   RO         7806    .text               mf_w.l(fepilogue.o)
    0x08000812   0x08000812   0x000000ba   Code   RO         7808    .text               mf_w.l(depilogue.o)
    0x080008cc   0x080008cc   0x00000030   Code   RO         7812    .text               mf_w.l(dfixul.o)
    0x080008fc   0x080008fc   0x00000024   Code   RO         7824    .text               mc_w.l(init.o)
    0x08000920   0x08000920   0x0000001c   Code   RO         6171    i.ADD_DATA          hmi_driver.o
    0x0800093c   0x0800093c   0x00000064   Code   RO         6440    i.Ack_I2c           i2c.o
    0x080009a0   0x080009a0   0x0000003c   Code   RO         6026    i.BEEP_Start        bsp_beep.o
    0x080009dc   0x080009dc   0x0000000c   Code   RO         6172    i.BEGIN_CMD         hmi_driver.o
    0x080009e8   0x080009e8   0x00000004   Code   RO            3    i.BusFault_Handler  gd32f4xx_it.o
    0x080009ec   0x080009ec   0x00000038   Code   RO         7115    i.CRC_Compute       crc.o
    0x08000a24   0x08000a24   0x0000001c   Code   RO            4    i.DMA1_Channel2_IRQHandler  gd32f4xx_it.o
    0x08000a40   0x08000a40   0x00000020   Code   RO            5    i.DMA1_Channel7_IRQHandler  gd32f4xx_it.o
    0x08000a60   0x08000a60   0x00000060   Code   RO         6130    i.DcMotorCtrl       devctrl.o
    0x08000ac0   0x08000ac0   0x00000002   Code   RO            6    i.DebugMon_Handler  gd32f4xx_it.o
    0x08000ac2   0x08000ac2   0x00000036   Code   RO         6176    i.Display_Message   hmi_driver.o
    0x08000af8   0x08000af8   0x00000080   Code   RO         6177    i.Display_String    hmi_driver.o
    0x08000b78   0x08000b78   0x00000018   Code   RO         6178    i.END_CMD           hmi_driver.o
    0x08000b90   0x08000b90   0x0000001e   Code   RO            7    i.EXTI10_15_IRQHandler  gd32f4xx_it.o
    0x08000bae   0x08000bae   0x00000002   PAD
    0x08000bb0   0x08000bb0   0x00000098   Code   RO         6132    i.EleSwCtrl         devctrl.o
    0x08000c48   0x08000c48   0x0000004c   Code   RO         6740    i.FlowCtrl          app.o
    0x08000c94   0x08000c94   0x00000020   Code   RO         6741    i.Flow_Init         app.o
    0x08000cb4   0x08000cb4   0x00000062   Code   RO         6182    i.GUI_RectangleFill  hmi_driver.o
    0x08000d16   0x08000d16   0x00000002   PAD
    0x08000d18   0x08000d18   0x00000008   Code   RO         6627    i.GetCapture        timer.o
    0x08000d20   0x08000d20   0x00000022   Code   RO         6184    i.GetEditValue      hmi_driver.o
    0x08000d42   0x08000d42   0x00000002   PAD
    0x08000d44   0x08000d44   0x00000114   Code   RO         6508    i.GetFlow           sensor.o
    0x08000e58   0x08000e58   0x00000008   Code   RO         7169    i.GetInOut          inout.o
    0x08000e60   0x08000e60   0x00000008   Code   RO         6509    i.GetModbusPack     sensor.o
    0x08000e68   0x08000e68   0x000000e8   Code   RO         6510    i.GetModbusSens     sensor.o
    0x08000f50   0x08000f50   0x000001f0   Code   RO         6511    i.GetPH_ORP         sensor.o
    0x08001140   0x08001140   0x00000008   Code   RO         6512    i.GetSensor         sensor.o
    0x08001148   0x08001148   0x00000014   Code   RO         6187    i.GetStrLen         hmi_driver.o
    0x0800115c   0x0800115c   0x00000544   Code   RO         6513    i.GetTds_EleCurr    sensor.o
    0x080016a0   0x080016a0   0x0000000c   Code   RO         7356    i.GetTickResult     sys.o
    0x080016ac   0x080016ac   0x0000000c   Code   RO         7357    i.GetTickStatus     sys.o
    0x080016b8   0x080016b8   0x00000022   Code   RO         6188    i.GetTouchEditValue  hmi_driver.o
    0x080016da   0x080016da   0x00000002   PAD
    0x080016dc   0x080016dc   0x000000f4   Code   RO         6514    i.GetWaterLevel     sensor.o
    0x080017d0   0x080017d0   0x0000000c   Code   RO         7358    i.HAL_GetTick       sys.o
    0x080017dc   0x080017dc   0x00000008   Code   RO         6628    i.HAL_TIM_IC_CaptureCallback  timer.o
    0x080017e4   0x080017e4   0x00000004   Code   RO            8    i.HardFault_Handler  gd32f4xx_it.o
    0x080017e8   0x080017e8   0x00000034   Code   RO         6441    i.IRcvByte          i2c.o
    0x0800181c   0x0800181c   0x0000004c   Code   RO         6442    i.ISendByte         i2c.o
    0x08001868   0x08001868   0x000001ac   Code   RO          247    i.MX_GPIO_Init      main.o
    0x08001a14   0x08001a14   0x000000a4   Code   RO          248    i.MX_TIM1_Init      main.o
    0x08001ab8   0x08001ab8   0x00000088   Code   RO          249    i.MX_TIM3_Init      main.o
    0x08001b40   0x08001b40   0x00000164   Code   RO          250    i.MX_TIM4_Init      main.o
    0x08001ca4   0x08001ca4   0x00000080   Code   RO          251    i.MX_UART4_Init     main.o
    0x08001d24   0x08001d24   0x0000008c   Code   RO          252    i.MX_USART1_UART_Init  main.o
    0x08001db0   0x08001db0   0x00000088   Code   RO          253    i.MX_USART2_UART_Init  main.o
    0x08001e38   0x08001e38   0x0000008c   Code   RO          254    i.MX_USART3_UART_Init  main.o
    0x08001ec4   0x08001ec4   0x000000a4   Code   RO          255    i.MX_USART6_UART_Init  main.o
    0x08001f68   0x08001f68   0x00000004   Code   RO            9    i.MemManage_Handler  gd32f4xx_it.o
    0x08001f6c   0x08001f6c   0x00000070   Code   RO         7236    i.Modbus_03_Solve   modbus.o
    0x08001fdc   0x08001fdc   0x00000004   Code   RO         7237    i.Modbus_06_Solve   modbus.o
    0x08001fe0   0x08001fe0   0x00000004   Code   RO         7238    i.Modbus_16_Solve   modbus.o
    0x08001fe4   0x08001fe4   0x00000188   Code   RO         7239    i.Modbus_Pack       modbus.o
    0x0800216c   0x0800216c   0x00000002   Code   RO           10    i.NMI_Handler       gd32f4xx_it.o
    0x0800216e   0x0800216e   0x00000002   PAD
    0x08002170   0x08002170   0x00000028   Code   RO         7359    i.NVIC_SetPriority  sys.o
    0x08002198   0x08002198   0x00000014   Code   RO         6877    i.NotifyGetCheckbox  app_lcd.o
    0x080021ac   0x080021ac   0x0000004c   Code   RO         6878    i.NotifyGetEdit     app_lcd.o
    0x080021f8   0x080021f8   0x00000010   Code   RO         6879    i.NotifyGetPage     app_lcd.o
    0x08002208   0x08002208   0x00000010   Code   RO         6880    i.NotifyGetSlider   app_lcd.o
    0x08002218   0x08002218   0x0000004c   Code   RO         6881    i.NotifyGetTouchEdit  app_lcd.o
    0x08002264   0x08002264   0x00000018   Code   RO         6885    i.NotifySetPage     app_lcd.o
    0x0800227c   0x0800227c   0x00000054   Code   RO         6888    i.NotifyTouchButton  app_lcd.o
    0x080022d0   0x080022d0   0x00000014   Code   RO         6889    i.NotifyTouchCheckbox  app_lcd.o
    0x080022e4   0x080022e4   0x0000002c   Code   RO         6890    i.NotifyTouchEdit   app_lcd.o
    0x08002310   0x08002310   0x00000030   Code   RO         6891    i.NotifyTouchSlider  app_lcd.o
    0x08002340   0x08002340   0x00000248   Code   RO         7308    i.PIDCalc           pid.o
    0x08002588   0x08002588   0x0000000e   Code   RO         7309    i.PIDInit           pid.o
    0x08002596   0x08002596   0x00000002   Code   RO           11    i.PendSV_Handler    gd32f4xx_it.o
    0x08002598   0x08002598   0x000000e4   Code   RO         6894    i.ProcessMessage    app_lcd.o
    0x0800267c   0x0800267c   0x0000007c   Code   RO         7241    i.RS485_RxCpltCallback  modbus.o
    0x080026f8   0x080026f8   0x00000058   Code   RO         7242    i.RS485_SendData    modbus.o
    0x08002750   0x08002750   0x000000c8   Code   RO         7243    i.RS485_Service     modbus.o
    0x08002818   0x08002818   0x00000088   Code   RO         6443    i.RcvByte           i2c.o
    0x080028a0   0x080028a0   0x00000002   Code   RO           12    i.SVC_Handler       gd32f4xx_it.o
    0x080028a2   0x080028a2   0x00000002   PAD
    0x080028a4   0x080028a4   0x000000c8   Code   RO         6444    i.SendByte          i2c.o
    0x0800296c   0x0800296c   0x00000016   Code   RO         6189    i.SendStrings       hmi_driver.o
    0x08002982   0x08002982   0x0000001a   Code   RO         6190    i.SetBackLight      hmi_driver.o
    0x0800299c   0x0800299c   0x00000030   Code   RO         6191    i.SetBarGaugeValue  hmi_driver.o
    0x080029cc   0x080029cc   0x00000030   Code   RO         6192    i.SetBatteryValue   hmi_driver.o
    0x080029fc   0x080029fc   0x00000030   Code   RO         6194    i.SetCircleGaugeValue  hmi_driver.o
    0x08002a2c   0x08002a2c   0x00000036   Code   RO         6197    i.SetLableValue     hmi_driver.o
    0x08002a62   0x08002a62   0x00000030   Code   RO         6198    i.SetNumberValue    hmi_driver.o
    0x08002a92   0x08002a92   0x0000001a   Code   RO         6199    i.SetPage           hmi_driver.o
    0x08002aac   0x08002aac   0x0000002a   Code   RO         6200    i.SetProgressbarValue  hmi_driver.o
    0x08002ad6   0x08002ad6   0x00000030   Code   RO         6201    i.SetReset          hmi_driver.o
    0x08002b06   0x08002b06   0x00000030   Code   RO         6203    i.SetThermometerValue  hmi_driver.o
    0x08002b36   0x08002b36   0x00000030   Code   RO         6205    i.SetWaterGaugeValue  hmi_driver.o
    0x08002b66   0x08002b66   0x00000036   Code   RO         6206    i.SetWaveformValue  hmi_driver.o
    0x08002b9c   0x08002b9c   0x00000034   Code   RO         7171    i.Soft_Reset        inout.o
    0x08002bd0   0x08002bd0   0x00000068   Code   RO         6445    i.Start_I2c         i2c.o
    0x08002c38   0x08002c38   0x00000050   Code   RO         6446    i.Stop_I2c          i2c.o
    0x08002c88   0x08002c88   0x00000018   Code   RO           13    i.SysTick_Handler   gd32f4xx_it.o
    0x08002ca0   0x08002ca0   0x000000b8   Code   RO          431    i.SystemInit        system_gd32f4xx.o
    0x08002d58   0x08002d58   0x000000d0   Code   RO         6629    i.TIM3CaptureChannel3Callback  timer.o
    0x08002e28   0x08002e28   0x00000018   Code   RO           14    i.TIMER2_IRQHandler  gd32f4xx_it.o
    0x08002e40   0x08002e40   0x00000040   Code   RO         7360    i.TickPro           sys.o
    0x08002e80   0x08002e80   0x00000046   Code   RO         6744    i.TickTimeoutAb     app.o
    0x08002ec6   0x08002ec6   0x00000068   Code   RO         6745    i.TickTimeoutNor    app.o
    0x08002f2e   0x08002f2e   0x00000002   PAD
    0x08002f30   0x08002f30   0x00000028   Code   RO           15    i.USART5_IRQHandler  gd32f4xx_it.o
    0x08002f58   0x08002f58   0x00000280   Code   RO         6895    i.UpdateUI          app_lcd.o
    0x080031d8   0x080031d8   0x00000004   Code   RO           16    i.UsageFault_Handler  gd32f4xx_it.o
    0x080031dc   0x080031dc   0x0000000e   Code   RO         6447    i._Nop              i2c.o
    0x080031ea   0x080031ea   0x00000002   PAD
    0x080031ec   0x080031ec   0x00000020   Code   RO         7696    i.__0printf         mc_w.l(printfa.o)
    0x0800320c   0x0800320c   0x00000028   Code   RO         7698    i.__0sprintf        mc_w.l(printfa.o)
    0x08003234   0x08003234   0x00000030   Code   RO         7820    i.__ARM_fpclassify  m_wm.l(fpclassify.o)
    0x08003264   0x08003264   0x00000004   PAD
    0x08003268   0x08003268   0x000000c8   Code   RO         7440    i.__hardfp_sin      m_wm.l(sin.o)
    0x08003330   0x08003330   0x00000438   Code   RO         7763    i.__ieee754_rem_pio2  m_wm.l(rred.o)
    0x08003768   0x08003768   0x00000170   Code   RO         7746    i.__kernel_cos      m_wm.l(cos_i.o)
    0x080038d8   0x080038d8   0x000000f8   Code   RO         7822    i.__kernel_poly     m_wm.l(poly.o)
    0x080039d0   0x080039d0   0x00000130   Code   RO         7768    i.__kernel_sin      m_wm.l(sin_i.o)
    0x08003b00   0x08003b00   0x00000014   Code   RO         7750    i.__mathlib_dbl_infnan  m_wm.l(dunder.o)
    0x08003b14   0x08003b14   0x00000004   PAD
    0x08003b18   0x08003b18   0x00000020   Code   RO         7752    i.__mathlib_dbl_invalid  m_wm.l(dunder.o)
    0x08003b38   0x08003b38   0x00000020   Code   RO         7755    i.__mathlib_dbl_underflow  m_wm.l(dunder.o)
    0x08003b58   0x08003b58   0x0000000e   Code   RO         7828    i.__scatterload_copy  mc_w.l(handlers.o)
    0x08003b66   0x08003b66   0x00000002   Code   RO         7829    i.__scatterload_null  mc_w.l(handlers.o)
    0x08003b68   0x08003b68   0x0000000e   Code   RO         7830    i.__scatterload_zeroinit  mc_w.l(handlers.o)
    0x08003b76   0x08003b76   0x00000002   PAD
    0x08003b78   0x08003b78   0x0000000c   Code   RO         7800    i.__set_errno       mc_w.l(errno.o)
    0x08003b84   0x08003b84   0x00000184   Code   RO         7703    i._fp_digits        mc_w.l(printfa.o)
    0x08003d08   0x08003d08   0x000006dc   Code   RO         7704    i._printf_core      mc_w.l(printfa.o)
    0x080043e4   0x080043e4   0x00000024   Code   RO         7705    i._printf_post_padding  mc_w.l(printfa.o)
    0x08004408   0x08004408   0x0000002e   Code   RO         7706    i._printf_pre_padding  mc_w.l(printfa.o)
    0x08004436   0x08004436   0x0000000a   Code   RO         7708    i._sputc            mc_w.l(printfa.o)
    0x08004440   0x08004440   0x000002c8   Code   RO         6746    i.abnormalDec       app.o
    0x08004708   0x08004708   0x0000002a   Code   RO         1712    i.adc_calibration_enable  gd32f4xx_adc.o
    0x08004732   0x08004732   0x00000002   PAD
    0x08004734   0x08004734   0x00000060   Code   RO         1713    i.adc_channel_16_to_18  gd32f4xx_adc.o
    0x08004794   0x08004794   0x00000052   Code   RO         1714    i.adc_channel_length_config  gd32f4xx_adc.o
    0x080047e6   0x080047e6   0x00000002   PAD
    0x080047e8   0x080047e8   0x0000003c   Code   RO         6517    i.adc_channel_sample  sensor.o
    0x08004824   0x08004824   0x00000024   Code   RO         1715    i.adc_clock_config  gd32f4xx_adc.o
    0x08004848   0x08004848   0x000000cc   Code   RO          257    i.adc_config        main.o
    0x08004914   0x08004914   0x00000016   Code   RO         1716    i.adc_data_alignment_config  gd32f4xx_adc.o
    0x0800492a   0x0800492a   0x00000014   Code   RO         1717    i.adc_deinit        gd32f4xx_adc.o
    0x0800493e   0x0800493e   0x00000012   Code   RO         1724    i.adc_enable        gd32f4xx_adc.o
    0x08004950   0x08004950   0x00000034   Code   RO         1726    i.adc_external_trigger_config  gd32f4xx_adc.o
    0x08004984   0x08004984   0x00000030   Code   RO         1727    i.adc_external_trigger_source_config  gd32f4xx_adc.o
    0x080049b4   0x080049b4   0x00000008   Code   RO         1728    i.adc_flag_clear    gd32f4xx_adc.o
    0x080049bc   0x080049bc   0x0000000e   Code   RO         1729    i.adc_flag_get      gd32f4xx_adc.o
    0x080049ca   0x080049ca   0x0000007c   Code   RO         1730    i.adc_inserted_channel_config  gd32f4xx_adc.o
    0x08004a46   0x08004a46   0x0000002e   Code   RO         1732    i.adc_inserted_data_read  gd32f4xx_adc.o
    0x08004a74   0x08004a74   0x000000ac   Code   RO         1741    i.adc_regular_channel_config  gd32f4xx_adc.o
    0x08004b20   0x08004b20   0x00000008   Code   RO         1742    i.adc_regular_data_read  gd32f4xx_adc.o
    0x08004b28   0x08004b28   0x00000024   Code   RO         1745    i.adc_software_trigger_enable  gd32f4xx_adc.o
    0x08004b4c   0x08004b4c   0x0000005a   Code   RO         1746    i.adc_special_function_config  gd32f4xx_adc.o
    0x08004ba6   0x08004ba6   0x00000002   PAD
    0x08004ba8   0x08004ba8   0x00000024   Code   RO         1751    i.adc_sync_mode_config  gd32f4xx_adc.o
    0x08004bcc   0x08004bcc   0x00000008   Code   RO         6747    i.app               app.o
    0x08004bd4   0x08004bd4   0x0000016c   Code   RO         6028    i.bsp_SetTIMOutPWM  bsp_beep.o
    0x08004d40   0x08004d40   0x000002fc   Code   RO         6518    i.calibration_sensors  sensor.o
    0x0800503c   0x0800503c   0x00000018   Code   RO         7361    i.delay_ms          sys.o
    0x08005054   0x08005054   0x00000018   Code   RO         7362    i.delay_us          sys.o
    0x0800506c   0x0800506c   0x00000020   Code   RO         1051    i.dma_channel_enable  gd32f4xx_dma.o
    0x0800508c   0x0800508c   0x00000026   Code   RO         1052    i.dma_channel_subperipheral_select  gd32f4xx_dma.o
    0x080050b2   0x080050b2   0x00000020   Code   RO         1053    i.dma_circulation_disable  gd32f4xx_dma.o
    0x080050d2   0x080050d2   0x00000002   PAD
    0x080050d4   0x080050d4   0x000000b8   Code   RO          258    i.dma_config        main.o
    0x0800518c   0x0800518c   0x000000a4   Code   RO         1055    i.dma_deinit        gd32f4xx_dma.o
    0x08005230   0x08005230   0x0000003e   Code   RO         1061    i.dma_interrupt_enable  gd32f4xx_dma.o
    0x0800526e   0x0800526e   0x0000003e   Code   RO         1062    i.dma_interrupt_flag_clear  gd32f4xx_dma.o
    0x080052ac   0x080052ac   0x00000204   Code   RO         1063    i.dma_interrupt_flag_get  gd32f4xx_dma.o
    0x080054b0   0x080054b0   0x00000158   Code   RO         1075    i.dma_single_data_mode_init  gd32f4xx_dma.o
    0x08005608   0x08005608   0x000001d4   Code   RO         6750    i.ele_dev_proc      app.o
    0x080057dc   0x080057dc   0x00000094   Code   RO         6751    i.ele_process       app.o
    0x08005870   0x08005870   0x000000bc   Code   RO         1267    i.exti_init         gd32f4xx_exti.o
    0x0800592c   0x0800592c   0x0000000c   Code   RO         1270    i.exti_interrupt_flag_clear  gd32f4xx_exti.o
    0x08005938   0x08005938   0x00000024   Code   RO         1271    i.exti_interrupt_flag_get  gd32f4xx_exti.o
    0x0800595c   0x0800595c   0x00000018   Code   RO         7816    i.fabs              m_wm.l(fabs.o)
    0x08005974   0x08005974   0x00000024   Code   RO         6752    i.fill_pro          app.o
    0x08005998   0x08005998   0x0000002c   Code   RO         7363    i.fputc             sys.o
    0x080059c4   0x080059c4   0x00000008   Code   RO         7058    i.getQueue          cmd_queue.o
    0x080059cc   0x080059cc   0x00000008   Code   RO         7172    i.getTouch          inout.o
    0x080059d4   0x080059d4   0x00000008   Code   RO         6896    i.getuiCallback     app_lcd.o
    0x080059dc   0x080059dc   0x0000005e   Code   RO          946    i.gpio_af_set       gd32f4xx_gpio.o
    0x08005a3a   0x08005a3a   0x00000004   Code   RO          947    i.gpio_bit_reset    gd32f4xx_gpio.o
    0x08005a3e   0x08005a3e   0x00000004   Code   RO          948    i.gpio_bit_set      gd32f4xx_gpio.o
    0x08005a42   0x08005a42   0x0000000a   Code   RO          950    i.gpio_bit_write    gd32f4xx_gpio.o
    0x08005a4c   0x08005a4c   0x00000074   Code   RO          259    i.gpio_config       main.o
    0x08005ac0   0x08005ac0   0x00000010   Code   RO          952    i.gpio_input_bit_get  gd32f4xx_gpio.o
    0x08005ad0   0x08005ad0   0x0000004e   Code   RO          954    i.gpio_mode_set     gd32f4xx_gpio.o
    0x08005b1e   0x08005b1e   0x00000042   Code   RO          956    i.gpio_output_options_set  gd32f4xx_gpio.o
    0x08005b60   0x08005b60   0x00000108   Code   RO         6897    i.lcd_boot          app_lcd.o
    0x08005c68   0x08005c68   0x0000003c   Code   RO         6898    i.lcd_init          app_lcd.o
    0x08005ca4   0x08005ca4   0x00000478   Code   RO         6753    i.lcd_proc          app.o
    0x0800611c   0x0800611c   0x00000244   Code   RO         6899    i.lcd_touch_interrupt  app_lcd.o
    0x08006360   0x08006360   0x00000068   Code   RO          260    i.main              main.o
    0x080063c8   0x080063c8   0x000001b4   Code   RO         6520    i.module_anlysis    sensor.o
    0x0800657c   0x0800657c   0x000000e8   Code   RO         6754    i.module_dis_proc   app.o
    0x08006664   0x08006664   0x0000004e   Code   RO         6755    i.module_reset      app.o
    0x080066b2   0x080066b2   0x0000003c   Code   RO          261    i.nvic_config       main.o
    0x080066ee   0x080066ee   0x00000002   PAD
    0x080066f0   0x080066f0   0x000000c4   Code   RO         4146    i.nvic_irq_enable   gd32f4xx_misc.o
    0x080067b4   0x080067b4   0x00000014   Code   RO         4147    i.nvic_priority_group_set  gd32f4xx_misc.o
    0x080067c8   0x080067c8   0x00000110   Code   RO         6521    i.orp_ph_process    sensor.o
    0x080068d8   0x080068d8   0x0000007c   Code   RO         7311    i.pid_init          pid.o
    0x08006954   0x08006954   0x00000044   Code   RO         7312    i.pid_proc          pid.o
    0x08006998   0x08006998   0x00000024   Code   RO         7059    i.queue_clear       cmd_queue.o
    0x080069bc   0x080069bc   0x000000fc   Code   RO         7060    i.queue_find_cmd    cmd_queue.o
    0x08006ab8   0x08006ab8   0x00000034   Code   RO         7061    i.queue_pop         cmd_queue.o
    0x08006aec   0x08006aec   0x00000030   Code   RO         7062    i.queue_push        cmd_queue.o
    0x08006b1c   0x08006b1c   0x00000018   Code   RO         7063    i.queue_reset       cmd_queue.o
    0x08006b34   0x08006b34   0x00000020   Code   RO         7064    i.queue_size        cmd_queue.o
    0x08006b54   0x08006b54   0x00000124   Code   RO         1357    i.rcu_clock_freq_get  gd32f4xx_rcu.o
    0x08006c78   0x08006c78   0x00000034   Code   RO          262    i.rcu_config        main.o
    0x08006cac   0x08006cac   0x00000024   Code   RO         1376    i.rcu_periph_clock_enable  gd32f4xx_rcu.o
    0x08006cd0   0x08006cd0   0x00000024   Code   RO         1379    i.rcu_periph_reset_disable  gd32f4xx_rcu.o
    0x08006cf4   0x08006cf4   0x00000024   Code   RO         1380    i.rcu_periph_reset_enable  gd32f4xx_rcu.o
    0x08006d18   0x08006d18   0x00000024   Code   RO         1392    i.rcu_timer_clock_prescaler_config  gd32f4xx_rcu.o
    0x08006d3c   0x08006d3c   0x00000016   Code   RO         6900    i.reboot_progress   app_lcd.o
    0x08006d52   0x08006d52   0x00000002   PAD
    0x08006d54   0x08006d54   0x0000006c   Code   RO         7364    i.registerTick      sys.o
    0x08006dc0   0x08006dc0   0x00000014   Code   RO         6522    i.sensor_process    sensor.o
    0x08006dd4   0x08006dd4   0x000000ac   Code   RO         4879    i.syscfg_exti_line_config  gd32f4xx_syscfg.o
    0x08006e80   0x08006e80   0x000000fc   Code   RO          432    i.system_clock_120m_irc16m  system_gd32f4xx.o
    0x08006f7c   0x08006f7c   0x00000008   Code   RO          433    i.system_clock_config  system_gd32f4xx.o
    0x08006f84   0x08006f84   0x00000050   Code   RO         7365    i.systick_config    sys.o
    0x08006fd4   0x08006fd4   0x0000000a   Code   RO         4937    i.timer_auto_reload_shadow_enable  gd32f4xx_timer.o
    0x08006fde   0x08006fde   0x0000002a   Code   RO         4945    i.timer_channel_capture_value_register_read  gd32f4xx_timer.o
    0x08007008   0x08007008   0x0000005a   Code   RO         4951    i.timer_channel_input_capture_prescaler_config  gd32f4xx_timer.o
    0x08007062   0x08007062   0x00000002   PAD
    0x08007064   0x08007064   0x000001ec   Code   RO         4954    i.timer_channel_output_config  gd32f4xx_timer.o
    0x08007250   0x08007250   0x0000005a   Code   RO         4956    i.timer_channel_output_mode_config  gd32f4xx_timer.o
    0x080072aa   0x080072aa   0x00000026   Code   RO         4958    i.timer_channel_output_pulse_value_config  gd32f4xx_timer.o
    0x080072d0   0x080072d0   0x0000005a   Code   RO         4959    i.timer_channel_output_shadow_config  gd32f4xx_timer.o
    0x0800732a   0x0800732a   0x00000002   PAD
    0x0800732c   0x0800732c   0x00000184   Code   RO         4968    i.timer_deinit      gd32f4xx_timer.o
    0x080074b0   0x080074b0   0x0000000a   Code   RO         4973    i.timer_enable      gd32f4xx_timer.o
    0x080074ba   0x080074ba   0x00000002   PAD
    0x080074bc   0x080074bc   0x00000098   Code   RO         4983    i.timer_init        gd32f4xx_timer.o
    0x08007554   0x08007554   0x00000146   Code   RO         4984    i.timer_input_capture_config  gd32f4xx_timer.o
    0x0800769a   0x0800769a   0x00000008   Code   RO         4990    i.timer_interrupt_enable  gd32f4xx_timer.o
    0x080076a2   0x080076a2   0x00000006   Code   RO         4991    i.timer_interrupt_flag_clear  gd32f4xx_timer.o
    0x080076a8   0x080076a8   0x00000018   Code   RO         4992    i.timer_interrupt_flag_get  gd32f4xx_timer.o
    0x080076c0   0x080076c0   0x00000018   Code   RO         4998    i.timer_primary_output_config  gd32f4xx_timer.o
    0x080076d8   0x080076d8   0x00000130   Code   RO         7175    i.touch_pro         inout.o
    0x08007808   0x08007808   0x000000e8   Code   RO         5556    i.usart_baudrate_set  gd32f4xx_usart.o
    0x080078f0   0x080078f0   0x0000000a   Code   RO         5560    i.usart_data_receive  gd32f4xx_usart.o
    0x080078fa   0x080078fa   0x00000008   Code   RO         5561    i.usart_data_transmit  gd32f4xx_usart.o
    0x08007902   0x08007902   0x00000002   PAD
    0x08007904   0x08007904   0x000000dc   Code   RO         5562    i.usart_deinit      gd32f4xx_usart.o
    0x080079e0   0x080079e0   0x00000010   Code   RO         5564    i.usart_dma_receive_config  gd32f4xx_usart.o
    0x080079f0   0x080079f0   0x00000010   Code   RO         5565    i.usart_dma_transmit_config  gd32f4xx_usart.o
    0x08007a00   0x08007a00   0x0000000a   Code   RO         5566    i.usart_enable      gd32f4xx_usart.o
    0x08007a0a   0x08007a0a   0x0000001e   Code   RO         5568    i.usart_flag_get    gd32f4xx_usart.o
    0x08007a28   0x08007a28   0x0000001a   Code   RO         5576    i.usart_interrupt_enable  gd32f4xx_usart.o
    0x08007a42   0x08007a42   0x0000001a   Code   RO         5577    i.usart_interrupt_flag_clear  gd32f4xx_usart.o
    0x08007a5c   0x08007a5c   0x00000038   Code   RO         5578    i.usart_interrupt_flag_get  gd32f4xx_usart.o
    0x08007a94   0x08007a94   0x00000010   Code   RO         5593    i.usart_receive_config  gd32f4xx_usart.o
    0x08007aa4   0x08007aa4   0x00000010   Code   RO         5608    i.usart_transmit_config  gd32f4xx_usart.o
    0x08007ab4   0x08007ab4   0x00000024   Code   RO         6756    i.work_process      app.o
    0x08007ad8   0x08007ad8   0x000001c0   Data   RO         6524    .constdata          sensor.o
    0x08007c98   0x08007c98   0x00000048   Data   RO         6902    .constdata          app_lcd.o
    0x08007ce0   0x08007ce0   0x00000200   Data   RO         7116    .constdata          crc.o
    0x08007ee0   0x08007ee0   0x00000030   Data   RO         7747    .constdata          m_wm.l(cos_i.o)
    0x08007f10   0x08007f10   0x000000c8   Data   RO         7765    .constdata          m_wm.l(rred.o)
    0x08007fd8   0x08007fd8   0x00000028   Data   RO         7769    .constdata          m_wm.l(sin_i.o)
    0x08008000   0x08008000   0x00000020   Data   RO         7826    Region$$Table       anon$$obj.o


    Execution Region RW_IRAM1 (Exec base: 0x20000000, Load base: 0x08008020, Size: 0x00000908, Max: 0x00020000, ABSOLUTE)

    Exec Addr    Load Addr    Size         Type   Attr      Idx    E Section Name        Object

    0x20000000   0x08008020   0x00000008   Data   RW           17    .data               gd32f4xx_it.o
    0x20000008   0x08008028   0x00000004   Data   RW          434    .data               system_gd32f4xx.o
    0x2000000c   0x0800802c   0x00000001   Data   RW         6212    .data               hmi_driver.o
    0x2000000d   0x0800802d   0x00000001   Data   RW         6448    .data               i2c.o
    0x2000000e   0x0800802e   0x00000002   PAD
    0x20000010   0x08008030   0x0000002b   Data   RW         6525    .data               sensor.o
    0x2000003b   0x0800805b   0x00000001   PAD
    0x2000003c   0x0800805c   0x0000001a   Data   RW         6631    .data               timer.o
    0x20000056   0x08008076   0x00000002   PAD
    0x20000058   0x08008078   0x00000013   Data   RW         6757    .data               app.o
    0x2000006b   0x0800808b   0x00000001   PAD
    0x2000006c   0x0800808c   0x00000013   Data   RW         6903    .data               app_lcd.o
    0x2000007f   0x0800809f   0x00000001   PAD
    0x20000080   0x080080a0   0x00000005   Data   RW         7066    .data               cmd_queue.o
    0x20000085   0x080080a5   0x0000000b   Data   RW         7177    .data               inout.o
    0x20000090   0x080080b0   0x0000000d   Data   RW         7246    .data               modbus.o
    0x2000009d   0x080080bd   0x00000003   PAD
    0x200000a0   0x080080c0   0x00000018   Data   RW         7314    .data               pid.o
    0x200000b8   0x080080d8   0x00000008   Data   RW         7367    .data               sys.o
    0x200000c0   0x080080e0   0x00000004   Data   RW         7801    .data               mc_w.l(errno.o)
    0x200000c4        -       0x00000010   Zero   RW         6029    .bss                bsp_beep.o
    0x200000d4        -       0x00000040   Zero   RW         6211    .bss                hmi_driver.o
    0x20000114        -       0x000000f0   Zero   RW         6523    .bss                sensor.o
    0x20000204        -       0x00000041   Zero   RW         6901    .bss                app_lcd.o
    0x20000245   0x080080e4   0x00000001   PAD
    0x20000246        -       0x00000084   Zero   RW         7065    .bss                cmd_queue.o
    0x200002ca   0x080080e4   0x00000002   PAD
    0x200002cc        -       0x0000003c   Zero   RW         7176    .bss                inout.o
    0x20000308        -       0x0000011c   Zero   RW         7245    .bss                modbus.o
    0x20000424   0x080080e4   0x00000004   PAD
    0x20000428        -       0x00000038   Zero   RW         7313    .bss                pid.o
    0x20000460        -       0x000000a8   Zero   RW         7366    .bss                sys.o
    0x20000508        -       0x00000400   Zero   RW         5953    STACK               startup_gd32f450.o


==============================================================================

Image component sizes


      Code (inc. data)   RO Data    RW Data    ZI Data      Debug   Object Name

      3144        256          0         19          0      12200   app.o
      2226        188         72         19         65      13799   app_lcd.o
       424         16          0          0         16       1988   bsp_beep.o
       452         50          0          5        132       4481   cmd_queue.o
        56         10        512          0          0       1260   crc.o
       248         18          0          0          0       1322   devctrl.o
       950         26          0          0          0      12955   gd32f4xx_adc.o
      1250          4          0          0          0       6734   gd32f4xx_dma.o
       236         14          0          0          0       2182   gd32f4xx_exti.o
       272          0          0          0          0       5278   gd32f4xx_gpio.o
       202         30          0          8          0      11608   gd32f4xx_it.o
       216         20          0          0          0       1560   gd32f4xx_misc.o
       436         44          0          0          0       4419   gd32f4xx_rcu.o
       172          6          0          0          0        818   gd32f4xx_syscfg.o
      1790         52          0          0          0      11884   gd32f4xx_timer.o
       682         18          0          0          0       9434   gd32f4xx_usart.o
       992         22          0          1         64      14857   hmi_driver.o
       762         38          0          1          0       5138   i2c.o
       372         26          0         11         60      31738   inout.o
      2512        130          0          0          0      88398   main.o
       924         52          0         13        284       5088   modbus.o
       790         98          0         24         56       3330   pid.o
      4164        316        448         43        240      10323   sensor.o
        36          8        428          0       1024        912   startup_gd32f450.o
       420         48          0          8        168      34041   sys.o
       444         30          0          4          0       2891   system_gd32f4xx.o
       224         36          0         26          0       2165   timer.o

    ----------------------------------------------------------------------
     24432       1556       1492        192       2116     300803   Object Totals
         0          0         32          0          0          0   (incl. Generated)
        36          0          0         10          7          0   (incl. Padding)

    ----------------------------------------------------------------------

      Code (inc. data)   RO Data    RW Data    ZI Data      Debug   Library Member Name

       368         46         48          0          0        200   cos_i.o
        84         16          0          0          0        372   dunder.o
        24          0          0          0          0        124   fabs.o
        48          0          0          0          0        124   fpclassify.o
       248          0          0          0          0        152   poly.o
      1080        142        200          0          0        188   rred.o
       200         20          0          0          0        164   sin.o
       304         24         40          0          0        208   sin_i.o
         0          0          0          0          0          0   entry.o
         0          0          0          0          0          0   entry10a.o
         0          0          0          0          0          0   entry11a.o
         8          4          0          0          0          0   entry2.o
         4          0          0          0          0          0   entry5.o
         0          0          0          0          0          0   entry7b.o
         0          0          0          0          0          0   entry8b.o
         8          4          0          0          0          0   entry9a.o
        12          6          0          4          0         68   errno.o
        30          0          0          0          0          0   handlers.o
        36          8          0          0          0         68   init.o
         0          0          0          0          0          0   iusefp.o
        30          0          0          0          0         68   llshl.o
        36          0          0          0          0         68   llsshr.o
        32          0          0          0          0         68   llushr.o
        36          0          0          0          0         68   memcpya.o
        36          0          0          0          0        108   memseta.o
      2308         96          0          0          0        604   printfa.o
        14          0          0          0          0         68   strlen.o
        44          0          0          0          0         80   uidiv.o
        98          0          0          0          0         92   uldiv.o
        48          0          0          0          0         68   cdcmple.o
        48          0          0          0          0         68   cdrcmple.o
        56          0          0          0          0         88   d2f.o
       334          0          0          0          0        148   dadd.o
       222          0          0          0          0        100   ddiv.o
       186          0          0          0          0        176   depilogue.o
        62          0          0          0          0         80   dfixi.o
        50          0          0          0          0         76   dfixui.o
        48          0          0          0          0         68   dfixul.o
        34          0          0          0          0         76   dflti.o
        26          0          0          0          0         76   dfltui.o
       228          0          0          0          0         96   dmul.o
        38          0          0          0          0         68   f2d.o
       110          0          0          0          0        168   fepilogue.o

    ----------------------------------------------------------------------
      6588        366        288          4          0       4248   Library Totals
        10          0          0          0          0          0   (incl. Padding)

    ----------------------------------------------------------------------

      Code (inc. data)   RO Data    RW Data    ZI Data      Debug   Library Name

      2356        248        288          0          0       1532   m_wm.l
      2732        118          0          4          0       1360   mc_w.l
      1490          0          0          0          0       1356   mf_w.l

    ----------------------------------------------------------------------
      6588        366        288          4          0       4248   Library Totals

    ----------------------------------------------------------------------

==============================================================================


      Code (inc. data)   RO Data    RW Data    ZI Data      Debug   

     31020       1922       1780        196       2116     281799   Grand Totals
     31020       1922       1780        196       2116     281799   ELF Image Totals
     31020       1922       1780        196          0          0   ROM Totals

==============================================================================

    Total RO  Size (Code + RO Data)                32800 (  32.03kB)
    Total RW  Size (RW Data + ZI Data)              2312 (   2.26kB)
    Total ROM Size (Code + RO Data + RW Data)      32996 (  32.22kB)

==============================================================================

